0100:                       org  0100h
                            section lestnica

=F803               monitor_cin      equ 0F803h     ; read char from keyboard
=F809               monitor_cout     equ 0F809h     ; print char to screen
=F815               monitor_hexb     equ 0F815h     ; print byte in hex
=F818               monitor_puts     equ 0F818h     ; print zero-terminated string
=F81B               monitor_scan_kbd equ 0F81Bh     ; scan keyboard (non-blocking)
=F821               monitor_curc     equ 0F821h     ; char under cursor
=F86C               monitor_prompt   equ 0F86Ch     ; monitor prompt (warm start)

=76D0               video_memory     equ 76D0h      ; start of video memory
=004E               video_width      equ 78         ; screen width in chars
=001E               video_height     equ 30         ; screen height in rows

=0809               prng_state       equ 0809h      ; 32-bit PRNG state (D:E at +0/+1, H:L at +2/+3)

                    ; Tile glyphs (RK86 char codes). Cross-referenced with the Z80 port at
                    ; https://github.com/imsushka/TangNano20K-VIDEO/blob/main/soft/LESTNICA.asm
=0009               CHR_PLAYER       equ 09h        ; flower glyph -- the player
=000B               CHR_MUSHROOM     equ 0Bh        ; up-arrow glyph -- kills on contact
=001E               CHR_APPLE        equ 1Eh        ; "pleasant thing" -- +90 BCD points
=0055               CHR_STONEHOLDER  equ 55h        ; 'U' -- spawns falling stones
=004F               CHR_STONE        equ 4Fh        ; 'O' -- boulder; kills on contact
=002A               CHR_STONEKILL    equ 2Ah        ; '*' -- stone-kill splat
=0048               CHR_LAD          equ 48h        ; 'H' -- ladder (climb with up-arrow)
=002E               CHR_JOKER        equ 2Eh        ; '.' -- random-direction trap; 50% jump 2
=0024               CHR_EXIT         equ 24h        ; '$' -- level exit (awards time bonus)
=0023               CHR_BRICK        equ 23h        ; '#' -- solid wall
=002D               CHR_BRIDGE       equ 2Dh        ; '-' -- horizontal bridge
=003D               CHR_FLOOR        equ 3Dh        ; '=' -- horizontal floor

                    ; Movement / arrow-key codes (as returned by the RK86 monitor)
=0008               ARROW_LEFT       equ 08h        ; left arrow
=0018               ARROW_RIGHT      equ 18h        ; right arrow
=0019               ARROW_UP         equ 19h        ; up arrow
=001A               ARROW_DOWN       equ 1Ah        ; down arrow
=0010               ARROW_INVERSE    equ 10h        ; ARROW_LEFT XOR ARROW_RIGHT (used to flip direction)
=0020               KEY_JUMP         equ 20h        ; Space -- sets jump flag in var_key
=0080               KEY_JUMP_FLAG    equ 80h        ; bit 7 of var_key = "jump queued"

0100:               loc_0100:
0100: 31 FF 69              lxi  sp, 69FFh
0103: 21 14 08              lxi  h, var_attempts
0106: 36 07                 mvi  m, 07h
0108: 21 62 08              lxi  h, level_table
010B: 22 1B 08              shld var_081B
010E: 21 09 08              lxi  h, prng_state
0111: 36 5A                 mvi  m, 5Ah                  ; 'Z'
0113: 23                    inx  h
0114: 36 34                 mvi  m, 34h                  ; '4'
0116: 23                    inx  h
0117: 36 17                 mvi  m, 17h
0119: 23                    inx  h
011A: 36 71                 mvi  m, 71h                  ; 'q'
011C: 21 17 08              lxi  h, var_level
011F: 36 01                 mvi  m, 01h
0121: 21 00 00              lxi  h, 0000h
0124: 22 18 08              shld var_score_lo
0127: C3 CB 06              jmp  loc_06CB
012A:               run_game:
012A: 21 11 08              lxi  h, var_dead
012D: 36 00                 mvi  m, 00h
012F: 21 1A 08              lxi  h, var_exit_touched
0132: 36 00                 mvi  m, 00h
0134: 2A 1B 08              lhld var_081B
0137: 5E                    mov  e, m
0138: 23                    inx  h
0139: 56                    mov  d, m
013A: 23                    inx  h
013B: 22 1B 08              shld var_081B
013E: 7B                    mov  a, e
013F: FE 00                 cpi  00h
0141: C2 4A 01              jnz  loc_014A
0144: 7A                    mov  a, d
0145: FE 00                 cpi  00h
0147: CA A1 07              jz   loc_07A1
014A:               loc_014A:
014A: CD 5B 01              call paint_screen
014D: CD C2 07              call find_player_and_stone
0150: 21 D0 08              lxi  h, msg_get_ready
0153: CD 18 F8              call monitor_puts
0156: 00                    nop
0157: 00                    nop
0158: C3 E7 07              jmp  loc_07E7
                    ; Paint the playfield from RLE-encoded data at (DE) into video memory
                    ; starting at row 3, col 7. Literal bytes copy straight through;
                    ; FFh N expands to N zero bytes. Loop stops when HL reaches 7FA0h
                    ; (row 28 col 72), i.e. after painting most of the screen above the
                    ; status row.
015B:               paint_screen:                                   ; offset=015Bh
015B: 21 C1 77              lxi  h, video_memory + 3*video_width + 7
015E:               paint_screen_loop:                              ; offset=015Eh
015E: 1A                    ldax d
015F: FE FF                 cpi  0FFh
0161: CA 74 01              jz   paint_screen_rle
0164: 77                    mov  m, a       ; literal byte
0165: 23                    inx  h
0166: 13                    inx  d
0167: 7C                    mov  a, h
0168: FE 7F                 cpi  7Fh
016A: C2 5E 01              jnz  paint_screen_loop
016D: 7D                    mov  a, l
016E: FE A0                 cpi  0A0h
0170: C2 5E 01              jnz  paint_screen_loop
0173: C9                    ret
0174:               paint_screen_rle:                               ; offset=0174h
0174: 13                    inx  d
0175: 1A                    ldax d
0176: 47                    mov  b, a       ; B = run length
0177: 13                    inx  d
0178:               paint_screen_fill:                              ; offset=0178h
0178: 36 00                 mvi  m, 00h
017A: 23                    inx  h
017B: 05                    dcr  b
017C: C2 78 01              jnz  paint_screen_fill
017F: 7C                    mov  a, h
0180: FE 7F                 cpi  7Fh
0182: C2 5E 01              jnz  paint_screen_loop
0185: 7D                    mov  a, l
0186: FE A0                 cpi  0A0h
0188: C2 5E 01              jnz  paint_screen_loop
018B: C9                    ret
                    ; Busy-wait delay. Entry at delay_bc uses caller's BC;
                    ; entry at delay_preset preloads BC=3001h.
                    ; Iterations ≈ (initial BC − 00FFh). At ~1.78 MHz, BC=3001h ≈ 150 ms.
018C:               delay_preset:                                   ; offset=018Ch
018C: 01 01 30              lxi  b, 3001h
018F:               delay_bc:                                       ; offset=018Fh
018F: 0B                    dcx  b
0190: 78                    mov  a, b
0191: FE 00                 cpi  00h
0193: C2 8F 01              jnz  delay_bc
0196: C9                    ret
                    ; New-game / new-life state reset, then fall through to main game loop.
                    ; Clears the 8-slot dynamic actor table at 0820h, redraws the flower,
                    ; resets tick counters, and primes HUD counter 0815h.
0197:               new_life:                                       ; offset=0197h
0197: 01 20 08              lxi  b, stone_table        ; BC = base (for end-of-loop test)
019A: 21 20 08              lxi  h, stone_table        ; HL = write ptr
                    ; Fill 8 actor slots [addr_lo, addr_hi, 'U', 1Ah] = inactive defaults.
019D:               clear_stone_table:                          ; offset=019Dh
019D: 36 00                 mvi  m, 00h          ; slot+0: addr lo
019F: 23                    inx  h
01A0: 36 00                 mvi  m, 00h          ; slot+1: addr hi
01A2: 23                    inx  h
01A3: 36 55                 mvi  m, 55h          ; slot+2: 'U' glyph
01A5: 23                    inx  h
01A6: 36 1A                 mvi  m, 1Ah          ; slot+3: type = empty
01A8: 23                    inx  h
01A9: 7D                    mov  a, l
01AA: 91                    sub  c
01AB: FE 20                 cpi  20h             ; stop after 32 bytes (8 slots)
01AD: C2 9D 01              jnz  clear_stone_table
01B0: 2A 12 08              lhld var_0812           ; cached flower address
01B3: 36 09                 mvi  m, 09h          ; redraw flower glyph in video memory
01B5: 22 00 08              shld var_player_addr           ; working pointer = flower addr
01B8: 21 02 08              lxi  h, var_player_stat
01BB: 36 00                 mvi  m, 00h          ; var_player_stat = empty
01BD: 23                    inx  h
01BE: 36 00                 mvi  m, 00h          ; var_key = no direction / no jump
01C0: 23                    inx  h
01C1: 36 00                 mvi  m, 00h          ; var_jump_byte = 0
01C3: 21 11 08              lxi  h, var_dead
01C6: 36 00                 mvi  m, 00h
01C8: 21 1A 08              lxi  h, var_exit_touched
01CB: 36 00                 mvi  m, 00h
01CD: 21 15 08              lxi  h, var_time
01D0: 36 40                 mvi  m, 40h          ; HUD BCD counter = 40h
                    ; Outer tick: reload sub-tick counter 0816h = 15.
01D2:               game_tick_outer:                                ; offset=01D2h
01D2: 21 16 08              lxi  h, var_tick
01D5: 36 0F                 mvi  m, 0Fh
                    ; Main game loop head: decrement sub-tick 0816h each iteration.
01D7:               game_tick_inner:                                ; offset=01D7h
01D7: 21 16 08              lxi  h, var_tick
01DA: 7E                    mov  a, m
01DB: 3D                    dcr  a
01DC: 77                    mov  m, a
01DD: CA 49 02              jz   loc_0249
01E0: CD 8C 01              call delay_preset
01E3: CD 9E 03              call keyboard
01E6: CD 16 06              call stone_step
01E9: CD E5 02              call player_step
01EC: CD 79 02              call draw_status_row
01EF: 21 1A 08              lxi  h, var_exit_touched
01F2: 7E                    mov  a, m
01F3: FE FF                 cpi  0FFh
01F5: CA C7 02              jz   inc_level
01F8: 21 15 08              lxi  h, var_time
01FB: 7E                    mov  a, m
01FC: FE 00                 cpi  00h
01FE: CA 0A 02              jz   game_over
0201: 21 11 08              lxi  h, var_dead
0204: 7E                    mov  a, m
0205: FE FF                 cpi  0FFh
0207: C2 D7 01              jnz  game_tick_inner
020A:               game_over:
020A: 21 02 08              lxi  h, var_player_stat
020D: 7E                    mov  a, m
020E: FE 4F                 cpi  CHR_STONE
0210: CA 1C 02              jz   loc_021C
0213: 2A 00 08              lhld var_player_addr
0216: 77                    mov  m, a
0217: 0E 07                 mvi  c, 07h
0219: CD 09 F8              call monitor_cout
021C:               loc_021C:
021C: 21 22 08              lxi  h, stone_table + 2
021F: 01 22 08              lxi  b, stone_table + 2
0222:               loc_0222:
0222: 7E                    mov  a, m
0223: FE 09                 cpi  CHR_PLAYER
0225: CA 3B 02              jz   loc_023B
0228: FE 4F                 cpi  CHR_STONE
022A: CA 3B 02              jz   loc_023B
022D: FE 20                 cpi  20h                     ; ' '
022F: CA 3B 02              jz   loc_023B
0232: 2B                    dcx  h
0233: 56                    mov  d, m
0234: 2B                    dcx  h
0235: 5E                    mov  e, m
0236: EB                    xchg
0237: 77                    mov  m, a
0238: EB                    xchg
0239: 23                    inx  h
023A: 23                    inx  h
023B:               loc_023B:
023B: 23                    inx  h
023C: 23                    inx  h
023D: 23                    inx  h
023E: 23                    inx  h
023F: 7D                    mov  a, l
0240: 91                    sub  c
0241: FE 20                 cpi  20h                     ; ' '
0243: C2 22 02              jnz  loc_0222
0246: C3 65 02              jmp  loc_0265
0249:               loc_0249:
0249: 21 15 08              lxi  h, var_time
024C: 7E                    mov  a, m
024D: 47                    mov  b, a
024E: 3E 9A                 mvi  a, 9Ah
0250: D6 01                 sui  01h
0252: 80                    add  b
0253: 27                    daa
0254: 77                    mov  m, a
0255: E6 F0                 ani  0F0h
0257: C2 D2 01              jnz  game_tick_outer
025A: 0E 07                 mvi  c, 07h
025C: CD 09 F8              call monitor_cout
025F: CD 09 F8              call monitor_cout
0262: C3 D2 01              jmp  game_tick_outer
0265:               loc_0265:
0265: 21 14 08              lxi  h, var_attempts
0268: 7E                    mov  a, m
0269: 47                    mov  b, a
026A: 3E 9A                 mvi  a, 9Ah
026C: D6 01                 sui  01h
026E: 80                    add  b
026F: 27                    daa
0270: 77                    mov  m, a
0271: FE 00                 cpi  00h
0273: C2 97 01              jnz  new_life
0276: C3 00 01              jmp  loc_0100
0279:               draw_status_row:
0279: 21 B3 02              lxi  h, cursor_r24_c8
027C: CD 18 F8              call monitor_puts
027F: 21 17 08              lxi  h, var_level
0282: 7E                    mov  a, m
0283: CD 15 F8              call monitor_hexb
0286: 21 B8 02              lxi  h, cursor_r24_c21
0289: CD 18 F8              call monitor_puts
028C: 21 14 08              lxi  h, var_attempts
028F: 7E                    mov  a, m
0290: CD 15 F8              call monitor_hexb
0293: 21 BD 02              lxi  h, cursor_r24_c31
0296: CD 18 F8              call monitor_puts
0299: 21 19 08              lxi  h, var_score_hi
029C: 7E                    mov  a, m
029D: CD 15 F8              call monitor_hexb
02A0: 2B                    dcx  h
02A1: 7E                    mov  a, m
02A2: CD 15 F8              call monitor_hexb
02A5: 21 C2 02              lxi  h, cursor_r24_c44
02A8: CD 18 F8              call monitor_puts
02AB: 21 15 08              lxi  h, var_time
02AE: 7E                    mov  a, m
02AF: CD 15 F8              call monitor_hexb
02B2: C9                    ret

                    ; ESC-Y cursor positioning strings for the status row.
                    ; Format: 1Bh, 'Y', row+20h, col+20h, 0 (NUL terminator for monitor_puts).
02B3:               cursor_r24_c8:                                  ; offset=02B3h
02B3: 1B 59 38 28           db   1Bh, "Y", 38h, 28h, 0
02B7: 00
02B8:               cursor_r24_c21:                                 ; offset=02B8h
02B8: 1B 59 38 35           db   1Bh, "Y", 38h, 35h, 0
02BC: 00
02BD:               cursor_r24_c31:                                 ; offset=02BDh
02BD: 1B 59 38 3F           db   1Bh, "Y", 38h, 3Fh, 0
02C1: 00
02C2:               cursor_r24_c44:                                 ; offset=02C2h
02C2: 1B 59 38 4C           db   1Bh, "Y", 38h, 4Ch, 0
02C6: 00
02C7:               inc_level:
02C7: CD D5 02              call add_time_bonus
02CA: 21 17 08              lxi  h, var_level
02CD: 7E                    mov  a, m
02CE: C6 01                 adi  01h
02D0: 27                    daa
02D1: 77                    mov  m, a
02D2: C3 E2 02              jmp  loc_02E2
02D5:               add_time_bonus:
02D5: 21 15 08              lxi  h, var_time
02D8: 46                    mov  b, m
02D9: 36 00                 mvi  m, 00h
02DB: F5                    push psw
02DC: C5                    push b
02DD: D5                    push d
02DE: E5                    push h
02DF: C3 F6 02              jmp  inc_score
02E2:               loc_02E2:
02E2: C3 2A 01              jmp  run_game
02E5:               player_step:
02E5: F5                    push psw
02E6: C5                    push b
02E7: D5                    push d
02E8: E5                    push h
02E9: 21 02 08              lxi  h, var_player_stat
02EC: 7E                    mov  a, m
02ED: FE 1E                 cpi  CHR_APPLE
02EF: C2 19 03              jnz  loc_0319
02F2: 36 00                 mvi  m, 00h
02F4: 06 45                 mvi  b, 45h                  ; 'E'
                    ; Add B (BCD amount) to the 4-digit BCD score at 0818h:0819h.
                    ; Also bumps 0814h by 1 each time the low score byte rolls past 99
                    ; (i.e. +1 per 100 score points — the bonus-life-per-100-pts mechanic).
                    ; Beeps once on return.
02F6:               inc_score:                                       ; offset=02F6h
02F6: 21 18 08              lxi  h, var_score_lo    ; score lo
02F9: 7E                    mov  a, m
02FA: 80                    add  b           ; lo += B
02FB: 27                    daa
02FC: 77                    mov  m, a        ; carry = lo wrapped past 99
02FD: 06 00                 mvi  b, 00h
02FF: 3E 00                 mvi  a, 00h
0301: 88                    adc  b           ; A = carry (0 or 1)
0302: 47                    mov  b, a        ; B = carry propagation
0303: 23                    inx  h           ; score hi
0304: 7E                    mov  a, m
0305: 80                    add  b           ; hi += carry
0306: 27                    daa
0307: 77                    mov  m, a
0308: 21 14 08              lxi  h, var_attempts
030B: 7E                    mov  a, m
030C: 80                    add  b           ; 0814h += carry (NOT original B) — +1 per 100 pts
030D: 27                    daa
030E: 77                    mov  m, a
030F: 0E 07                 mvi  c, 07h      ; BEL
0311: CD 09 F8              call monitor_cout
0314:               player_step_exit:
0314: E1                    pop  h
0315: D1                    pop  d
0316: C1                    pop  b
0317: F1                    pop  psw
0318: C9                    ret
0319:               loc_0319:
0319: FE 0B                 cpi  CHR_MUSHROOM
031B: C2 2B 03              jnz  loc_032B
031E:               player_dead:
031E: 21 11 08              lxi  h, var_dead
0321: 36 FF                 mvi  m, 0FFh
0323: 0E 07                 mvi  c, 07h
0325: CD 09 F8              call monitor_cout
0328: C3 14 03              jmp  player_step_exit
032B:               loc_032B:
032B: FE 4F                 cpi  CHR_STONE
032D: CA 1E 03              jz   player_dead
0330: FE 48                 cpi  CHR_LAD
0332: C2 48 03              jnz  loc_0348
0335: 21 03 08              lxi  h, var_key
0338: 7E                    mov  a, m
0339: E6 80                 ani  80h
033B: FE 00                 cpi  00h
033D: CA 48 03              jz   loc_0348
0340: 36 00                 mvi  m, 00h
0342: 23                    inx  h
0343: 36 00                 mvi  m, 00h
0345: C3 14 03              jmp  player_step_exit
0348:               loc_0348:
0348: FE 2E                 cpi  CHR_JOKER
034A: C2 91 03              jnz  loc_0391
034D: 21 03 08              lxi  h, var_key
0350: CD 46 05              call prng_next
0353: D6 3F                 sui  3Fh                     ; '?'
0355: FA 5D 03              jm   loc_035D
0358: 36 08                 mvi  m, 08h
035A: C3 5F 03              jmp  loc_035F
035D:               loc_035D:
035D: 36 18                 mvi  m, 18h
035F:               loc_035F:
035F: CD 46 05              call prng_next
0362: D6 3F                 sui  3Fh                     ; '?'
0364: FA 71 03              jm   loc_0371
0367: 7E                    mov  a, m
0368: C6 80                 adi  80h
036A: 77                    mov  m, a
036B: 23                    inx  h
036C: 36 02                 mvi  m, 02h
036E: C3 14 03              jmp  player_step_exit
0371:               loc_0371:
0371: 23                    inx  h
0372: 36 00                 mvi  m, 00h
0374: C3 14 03              jmp  player_step_exit
0377:               loc_0377:
0377: 06 03                 mvi  b, 03h
0379: 2A 00 08              lhld var_player_addr
037C:               loc_037C:
037C: EB                    xchg
037D: CD 2A 05              call de_row_down
0380: EB                    xchg
0381: 7E                    mov  a, m
0382: FE 4F                 cpi  CHR_STONE
0384: CA F6 02              jz   inc_score
0387: 05                    dcr  b
0388: 78                    mov  a, b
0389: FE 01                 cpi  01h
038B: CA 14 03              jz   player_step_exit
038E: C3 7C 03              jmp  loc_037C
0391:               loc_0391:
0391: FE 24                 cpi  CHR_EXIT
0393: C2 77 03              jnz  loc_0377
0396: 21 1A 08              lxi  h, var_exit_touched
0399: 36 FF                 mvi  m, 0FFh
039B: C3 14 03              jmp  player_step_exit
039E:               keyboard:
039E: F5                    push psw
039F: E5                    push h
03A0: D5                    push d
03A1: C5                    push b
03A2: CD 1B F8              call monitor_scan_kbd
03A5: FE FF                 cpi  0FFh
03A7: CA 16 04              jz   player_fall_or_move
03AA: FE 03                 cpi  03h
03AC: C2 BA 03              jnz  loc_03BA
03AF:               loc_03AF:
03AF: CD 03 F8              call monitor_cin
03B2: FE 0D                 cpi  0Dh
03B4: C2 AF 03              jnz  loc_03AF
03B7: C3 16 04              jmp  player_fall_or_move
                    ; Arrow-key switch. Stores the pressed direction in the low 7 bits of
                    ; var_key while preserving bit 7 (state flag). Pattern per arm:
                    ;   var_key = (var_key & 80h) | key_code
03BA:               loc_03BA:                                       ; offset=03BAh
03BA: FE 08                 cpi  ARROW_LEFT
03BC: C2 CB 03              jnz  loc_03CB
03BF: 21 03 08              lxi  h, var_key
03C2: 7E                    mov  a, m
03C3: E6 80                 ani  KEY_JUMP_FLAG
03C5: C6 08                 adi  ARROW_LEFT
03C7: 77                    mov  m, a
03C8: C3 16 04              jmp  player_fall_or_move
03CB:               loc_03CB:                                       ; offset=03CBh
03CB: FE 18                 cpi  ARROW_RIGHT
03CD: C2 DC 03              jnz  loc_03DC
03D0: 21 03 08              lxi  h, var_key
03D3: 7E                    mov  a, m
03D4: E6 80                 ani  KEY_JUMP_FLAG
03D6: C6 18                 adi  ARROW_RIGHT
03D8: 77                    mov  m, a
03D9: C3 16 04              jmp  player_fall_or_move
03DC:               loc_03DC:                                       ; offset=03DCh
03DC: FE 19                 cpi  ARROW_UP
03DE: C2 ED 03              jnz  loc_03ED
03E1: 21 03 08              lxi  h, var_key
03E4: 7E                    mov  a, m
03E5: E6 80                 ani  KEY_JUMP_FLAG
03E7: C6 19                 adi  ARROW_UP
03E9: 77                    mov  m, a
03EA: C3 16 04              jmp  player_fall_or_move
03ED:               loc_03ED:                                       ; offset=03EDh
03ED: FE 1A                 cpi  ARROW_DOWN
03EF: C2 FE 03              jnz  loc_03FE
03F2: 21 03 08              lxi  h, var_key
03F5: 7E                    mov  a, m
03F6: E6 80                 ani  KEY_JUMP_FLAG
03F8: C6 1A                 adi  ARROW_DOWN
03FA: 77                    mov  m, a
03FB: C3 16 04              jmp  player_fall_or_move
03FE:               loc_03FE:
03FE: FE 20                 cpi  KEY_JUMP                           ; Space — queue jump
0400: C2 0F 04              jnz  loc_040F
0403: 21 03 08              lxi  h, var_key
0406: 7E                    mov  a, m
0407: E6 7F                 ani  7Fh                                ; keep direction bits
0409: C6 80                 adi  KEY_JUMP_FLAG                      ; set jump bit
040B: 77                    mov  m, a
040C: C3 16 04              jmp  player_fall_or_move
040F:               loc_040F:                                       ; other key: clear direction, keep jump
040F: 21 03 08              lxi  h, var_key
0412: 7E                    mov  a, m
0413: E6 80                 ani  KEY_JUMP_FLAG
0415: 77                    mov  m, a
0416:               player_fall_or_move:
0416: 21 04 08              lxi  h, var_jump_byte
0419: 7E                    mov  a, m
041A: E6 7F                 ani  7Fh
041C: FE 00                 cpi  00h
041E: C2 6E 04              jnz  player_move_dispatch
0421: 21 00 08              lxi  h, var_player_addr
0424: 5E                    mov  e, m
0425: 23                    inx  h
0426: 56                    mov  d, m
0427: 7B                    mov  a, e
0428: CD 2A 05              call de_row_down
042B: EB                    xchg
042C: 7E                    mov  a, m
042D: FE 3D                 cpi  CHR_FLOOR
042F: CA 6E 04              jz   player_move_dispatch
0432: FE 23                 cpi  CHR_BRICK
0434: CA 6E 04              jz   player_move_dispatch
0437: FE 2D                 cpi  CHR_BRIDGE
0439: CA 3F 04              jz   loc_043F
043C: C3 44 04              jmp  player_fall_check
043F:               loc_043F:
043F: 36 00                 mvi  m, 00h
0441: C3 6E 04              jmp  player_move_dispatch
0444:               player_fall_check:
0444: 44                    mov  b, h
0445: 4D                    mov  c, l
0446: 21 02 08              lxi  h, var_player_stat
0449: 7E                    mov  a, m
044A: FE 48                 cpi  CHR_LAD
044C: C2 55 04              jnz  loc_0455
044F: 69                    mov  l, c
0450: 60                    mov  h, b
0451: EB                    xchg
0452: C3 6E 04              jmp  player_move_dispatch
0455:               loc_0455:
0455: 60                    mov  h, b
0456: 69                    mov  l, c
0457: EB                    xchg
0458: 2A 00 08              lhld var_player_addr
045B: 3A 02 08              lda  var_player_stat
045E: 77                    mov  m, a
045F: EB                    xchg
0460: 7E                    mov  a, m
0461: 36 09                 mvi  m, CHR_PLAYER
0463: 32 02 08              sta  var_player_stat
0466: 22 00 08              shld var_player_addr
0469: C1                    pop  b
046A: D1                    pop  d
046B: E1                    pop  h
046C: F1                    pop  psw
046D: C9                    ret
046E:               player_move_dispatch:
046E: 2A 00 08              lhld var_player_addr
0471: EB                    xchg
0472: 21 03 08              lxi  h, var_key
0475: 7E                    mov  a, m
0476: E6 80                 ani  80h
0478: CA AA 04              jz   loc_04AA
047B: 23                    inx  h
047C: 7E                    mov  a, m
047D: E6 7F                 ani  7Fh
047F: FE 00                 cpi  00h
0481: C2 86 04              jnz  loc_0486
0484: 3E 02                 mvi  a, 02h
0486:               loc_0486:
0486: 17                    ral
0487: 77                    mov  m, a
0488: F5                    push psw
0489: E6 0C                 ani  0Ch
048B: CA 92 04              jz   loc_0492
048E: 7B                    mov  a, e
048F: CD 37 05              call de_row_up
0492:               loc_0492:
0492: F1                    pop  psw
0493: F5                    push psw
0494: E6 C0                 ani  0C0h
0496: CA 9D 04              jz   loc_049D
0499: 7B                    mov  a, e
049A: CD 2A 05              call de_row_down
049D:               loc_049D:
049D: F1                    pop  psw
049E: FE 80                 cpi  80h
04A0: C2 AA 04              jnz  loc_04AA
04A3: 21 03 08              lxi  h, var_key
04A6: 7E                    mov  a, m
04A7: E6 7F                 ani  7Fh
04A9: 77                    mov  m, a
04AA:               loc_04AA:
04AA: 21 03 08              lxi  h, var_key
04AD: 7E                    mov  a, m
04AE: E6 7F                 ani  7Fh
04B0: FE 08                 cpi  08h
04B2: C2 B9 04              jnz  loc_04B9
04B5: 1B                    dcx  d
04B6: C3 EF 04              jmp  loc_04EF
04B9:               loc_04B9:
04B9: FE 18                 cpi  18h
04BB: C2 C2 04              jnz  loc_04C2
04BE: 13                    inx  d
04BF: C3 EF 04              jmp  loc_04EF
04C2:               loc_04C2:
04C2: FE 1A                 cpi  1Ah
04C4: C2 D7 04              jnz  loc_04D7
04C7: 21 02 08              lxi  h, var_player_stat
04CA: 7E                    mov  a, m
04CB: FE 48                 cpi  CHR_LAD
04CD: C2 EF 04              jnz  loc_04EF
04D0: 7B                    mov  a, e
04D1: CD 2A 05              call de_row_down
04D4: C3 EF 04              jmp  loc_04EF
04D7:               loc_04D7:
04D7: FE 19                 cpi  19h
04D9: C2 EF 04              jnz  loc_04EF
04DC: 21 02 08              lxi  h, var_player_stat
04DF: 7E                    mov  a, m
04E0: FE 48                 cpi  CHR_LAD
04E2: C2 EF 04              jnz  loc_04EF
04E5: 21 00 08              lxi  h, var_player_addr
04E8: 5E                    mov  e, m
04E9: 23                    inx  h
04EA: 56                    mov  d, m
04EB: 7B                    mov  a, e
04EC: CD 37 05              call de_row_up
04EF:               loc_04EF:
04EF: EB                    xchg
04F0: 7E                    mov  a, m
04F1: FE 3D                 cpi  CHR_FLOOR
04F3: C2 03 05              jnz  loc_0503
04F6:               loc_04F6:
04F6: 21 03 08              lxi  h, var_key
04F9: 36 00                 mvi  m, 00h
04FB: 23                    inx  h
04FC: 36 00                 mvi  m, 00h
04FE: C1                    pop  b
04FF: D1                    pop  d
0500: E1                    pop  h
0501: F1                    pop  psw
0502: C9                    ret
0503:               loc_0503:
0503: FE 23                 cpi  CHR_BRICK
0505: C2 0B 05              jnz  loc_050B
0508: C3 F6 04              jmp  loc_04F6
050B:               loc_050B:
050B: FE 2D                 cpi  CHR_BRIDGE
050D: C2 13 05              jnz  loc_0513
0510: C3 F6 04              jmp  loc_04F6
0513:               loc_0513:
0513: EB                    xchg
0514: 2A 00 08              lhld var_player_addr
0517: 3A 02 08              lda  var_player_stat
051A: 77                    mov  m, a
051B: EB                    xchg
051C: 7E                    mov  a, m
051D: 32 02 08              sta  var_player_stat
0520: 36 09                 mvi  m, CHR_PLAYER
0522: 22 00 08              shld var_player_addr
0525: C1                    pop  b
0526: D1                    pop  d
0527: E1                    pop  h
0528: F1                    pop  psw
0529: C9                    ret
                    ; DE += video_width — move the video-memory pointer down one screen row.
052A:               de_row_down:                                    ; offset=052Ah
052A: E5                    push h
052B: C5                    push b
052C: 7B                    mov  a, e
052D: C6 4E                 adi  video_width
052F: 5F                    mov  e, a
0530: D2 34 05              jnc  de_row_down_ret
0533: 14                    inr  d
0534:               de_row_down_ret:                                ; offset=0534h
0534: C1                    pop  b
0535: E1                    pop  h
0536: C9                    ret

                    ; DE -= video_width — move the video-memory pointer up one screen row.
0537:               de_row_up:                                      ; offset=0537h
0537: E5                    push h
0538: C5                    push b
0539: F5                    push psw
053A: 7B                    mov  a, e
053B: D6 4E                 sui  video_width
053D: 5F                    mov  e, a
053E: D2 42 05              jnc  de_row_up_ret
0541: 15                    dcr  d
0542:               de_row_up_ret:                                  ; offset=0542h
0542: F1                    pop  psw
0543: C1                    pop  b
0544: E1                    pop  h
0545: C9                    ret
                    ; 32-bit LFSR PRNG. State = 4 bytes at prng_state (D:E:H:L, D is MSB).
                    ; Seeded at boot with 5A 34 17 71.
                    ;   Shift the full 32-bit state left by 1 (bits 0..30 carry upward).
                    ;   Feedback: if (new D[7] XOR new L[7]) = 1 → set bit 0 of HL.
                    ;   (Taps at bits 30 and 6 of the 32-bit state.)
                    ; Returns A = one byte of pseudo-random data (new_D XOR new_L).
0546:               prng_next:                                      ; offset=0546h
0546: E5                    push h
0547: D5                    push d
0548: C5                    push b
0549: F5                    push psw
054A: 21 09 08              lxi  h, prng_state   ; D:E = high 16 bits
054D: 56                    mov  d, m
054E: 23                    inx  h
054F: 5E                    mov  e, m
0550: 2A 0B 08              lhld prng_state + 2  ; H:L = low 16 bits
0553: 29                    dad  h               ; HL <<= 1, CY = old HL[15]
0554: 7B                    mov  a, e
0555: 17                    ral                  ; E = (E<<1)|CY, new CY = old E[7]
0556: 5F                    mov  e, a
0557: 7A                    mov  a, d
0558: 17                    ral                  ; D = (D<<1)|CY, A = new D
0559: 57                    mov  d, a
055A: AD                    xra  l               ; A = new_D XOR new_L  (feedback + output)
055B: F2 5F 05              jp   prng_no_feedback
055E: 23                    inx  h               ; set bit 0 of HL (feedback tap fires)
055F:               prng_no_feedback:                               ; offset=055Fh
055F: 22 0B 08              shld prng_state + 2
0562: 21 09 08              lxi  h, prng_state
0565: 72                    mov  m, d
0566: 23                    inx  h
0567: 73                    mov  m, e
0568: 47                    mov  b, a            ; preserve A (the random byte) across pop psw
0569: F1                    pop  psw
056A: 78                    mov  a, b
056B: C1                    pop  b
056C: D1                    pop  d
056D: E1                    pop  h
056E: C9                    ret
056F:               loc_056F:
056F: C5                    push b
0570: F5                    push psw
0571: 22 0D 08              shld var_080D
0574: EB                    xchg
0575: 22 0F 08              shld var_080F
0578: CD 2A 05              call de_row_down
057B: EB                    xchg
057C: 7E                    mov  a, m
057D: FE 3D                 cpi  CHR_FLOOR
057F: CA C1 05              jz   loc_05C1
0582: FE 23                 cpi  CHR_BRICK
0584: CA C1 05              jz   loc_05C1
0587: FE 2D                 cpi  CHR_BRIDGE
0589: CA C1 05              jz   loc_05C1
058C: FE 48                 cpi  CHR_LAD
058E: C2 9F 05              jnz  loc_059F
0591: 7A                    mov  a, d
0592: FE 1A                 cpi  1Ah     ; (RK86 blank glyph)
0594: CA 9F 05              jz   loc_059F
0597: CD 46 05              call prng_next
059A: D6 7F                 sui  7Fh
059C: FA C1 05              jm   loc_05C1
059F:               loc_059F:
059F: 2A 0F 08              lhld var_080F
05A2: 26 1A                 mvi  h, 1Ah
05A4: 22 0F 08              shld var_080F
05A7: 2A 0D 08              lhld var_080D
05AA: EB                    xchg
05AB: 2A 0F 08              lhld var_080F
05AE: EB                    xchg
05AF: 7B                    mov  a, e
05B0: FE 20                 cpi  20h                     ; ' '
05B2: CA B6 05              jz   loc_05B6
05B5: 73                    mov  m, e
05B6:               loc_05B6:
05B6: EB                    xchg
05B7: CD 2A 05              call de_row_down
05BA: EB                    xchg
05BB: 5E                    mov  e, m
05BC: 36 4F                 mvi  m, CHR_STONE
05BE: F1                    pop  psw
05BF: C1                    pop  b
05C0: C9                    ret
05C1:               loc_05C1:
05C1: 2A 0F 08              lhld var_080F
05C4: 7C                    mov  a, h
05C5: FE 1A                 cpi  1Ah
05C7: C2 D9 05              jnz  loc_05D9
05CA: CD 46 05              call prng_next
05CD: D6 7F                 sui  7Fh
05CF: FA D7 05              jm   loc_05D7
05D2: 26 08                 mvi  h, 08h
05D4: C3 D9 05              jmp  loc_05D9
05D7:               loc_05D7:
05D7: 26 18                 mvi  h, 18h
05D9:               loc_05D9:
05D9: EB                    xchg
05DA:               loc_05DA:
05DA: 2A 0D 08              lhld var_080D
05DD: 7A                    mov  a, d
05DE: FE 08                 cpi  08h
05E0: CA E7 05              jz   loc_05E7
05E3: 23                    inx  h
05E4: C3 E8 05              jmp  loc_05E8
05E7:               loc_05E7:
05E7: 2B                    dcx  h
05E8:               loc_05E8:
05E8: 7E                    mov  a, m
05E9: FE 23                 cpi  CHR_BRICK
05EB: C2 F5 05              jnz  loc_05F5
05EE:               loc_05EE:
05EE: 7A                    mov  a, d
05EF: EE 10                 xri  ARROW_INVERSE         ; flip L <-> R (toggles bit 4)
05F1: 57                    mov  d, a
05F2: C3 DA 05              jmp  loc_05DA
05F5:               loc_05F5:
05F5: FE 48                 cpi  CHR_LAD
05F7: C2 02 06              jnz  loc_0602
05FA: CD 46 05              call prng_next
05FD: D6 7F                 sui  7Fh
05FF: FA EE 05              jm   loc_05EE
0602:               loc_0602:
0602: 44                    mov  b, h
0603: 4D                    mov  c, l
0604: 2A 0D 08              lhld var_080D
0607: 7B                    mov  a, e
0608: FE 20                 cpi  20h                     ; ' '
060A: CA 0E 06              jz   loc_060E
060D: 73                    mov  m, e
060E:               loc_060E:
060E: 69                    mov  l, c
060F: 60                    mov  h, b
0610: 5E                    mov  e, m
0611: 36 4F                 mvi  m, CHR_STONE
0613: F1                    pop  psw
0614: C1                    pop  b
0615: C9                    ret
0616:               stone_step:
0616: E5                    push h
0617: D5                    push d
0618: C5                    push b
0619: F5                    push psw
061A: 21 21 08              lxi  h, stone_table + 1
061D:               loc_061D:
061D: 7E                    mov  a, m
061E: 2B                    dcx  h
061F: FE 00                 cpi  00h
0621: CA 96 06              jz   loc_0696
0624: 4E                    mov  c, m
0625: 23                    inx  h
0626: 46                    mov  b, m
0627: 23                    inx  h
0628: 5E                    mov  e, m
0629: 23                    inx  h
062A: 56                    mov  d, m
062B: C5                    push b
062C: E5                    push h
062D: C1                    pop  b
062E: E1                    pop  h
062F: CD 6F 05              call loc_056F
0632: CD 56 06              call loc_0656
0635: 0B                    dcx  b
0636: 0B                    dcx  b
0637: 0B                    dcx  b
0638: C5                    push b
0639: E5                    push h
063A: C1                    pop  b
063B: E1                    pop  h
063C: 71                    mov  m, c
063D: 23                    inx  h
063E: 70                    mov  m, b
063F: 23                    inx  h
0640: 73                    mov  m, e
0641: 23                    inx  h
0642: 72                    mov  m, d
0643: 23                    inx  h
0644:               loc_0644:
0644: 7D                    mov  a, l
0645: E5                    push h
0646: 21 20 08              lxi  h, stone_table
0649: 95                    sub  l
064A: E1                    pop  h
064B: D6 20                 sui  20h                     ; ' '
064D: 23                    inx  h
064E: C2 1D 06              jnz  loc_061D
0651: F1                    pop  psw
0652: C1                    pop  b
0653: D1                    pop  d
0654: E1                    pop  h
0655: C9                    ret
0656:               loc_0656:
0656: F5                    push psw
0657: C5                    push b
0658: E5                    push h
0659: D5                    push d
065A: 7B                    mov  a, e
065B: FE 09                 cpi  CHR_PLAYER
065D: C2 68 06              jnz  loc_0668
0660: 21 11 08              lxi  h, var_dead
0663: 36 FF                 mvi  m, 0FFh
0665: C3 91 06              jmp  loc_0691
0668:               loc_0668:
0668: FE 20                 cpi  20h                     ; ' '
066A: C2 74 06              jnz  loc_0674
066D: D1                    pop  d
066E: 1E 00                 mvi  e, 00h
0670: D5                    push d
0671: C3 91 06              jmp  loc_0691
0674:               loc_0674:
0674: FE 2A                 cpi  CHR_STONEKILL
0676: C2 88 06              jnz  loc_0688
0679: D1                    pop  d
067A: E1                    pop  h
067B: 11 55 1A              lxi  d, 1A55h
067E: 36 2A                 mvi  m, CHR_STONEKILL
0680: 21 00 00              lxi  h, 0000h
0683: E5                    push h
0684: D5                    push d
0685: C3 91 06              jmp  loc_0691
0688:               loc_0688:
0688: FE 4F                 cpi  CHR_STONE
068A: C2 91 06              jnz  loc_0691
068D: D1                    pop  d
068E: 1E 20                 mvi  e, 20h                  ; ' '
0690: D5                    push d
0691:               loc_0691:
0691: D1                    pop  d
0692: E1                    pop  h
0693: C1                    pop  b
0694: F1                    pop  psw
0695: C9                    ret
0696:               loc_0696:
0696: F5                    push psw
0697: C5                    push b
0698: E5                    push h
0699: CD 46 05              call prng_next
069C: D6 3F                 sui  3Fh                     ; '?'
069E: FA AB 06              jm   loc_06AB
06A1:               loc_06A1:
06A1: E1                    pop  h
06A2: 23                    inx  h
06A3:               loc_06A3:
06A3: 23                    inx  h
06A4: 23                    inx  h
06A5: 23                    inx  h
06A6: C1                    pop  b
06A7: F1                    pop  psw
06A8: C3 44 06              jmp  loc_0644
06AB:               loc_06AB:
06AB: CD 46 05              call prng_next
06AE: D6 3F                 sui  3Fh                     ; '?'
06B0: FA C5 06              jm   loc_06C5
06B3: 2A 05 08              lhld var_0805
06B6:               loc_06B6:
06B6: 7E                    mov  a, m
06B7: FE 55                 cpi  CHR_STONEHOLDER
06B9: C2 A1 06              jnz  loc_06A1
06BC: E5                    push h
06BD: C1                    pop  b
06BE: E1                    pop  h
06BF: 71                    mov  m, c
06C0: 23                    inx  h
06C1: 70                    mov  m, b
06C2: C3 A3 06              jmp  loc_06A3
06C5:               loc_06C5:
06C5: 2A 07 08              lhld var_0807
06C8: C3 B6 06              jmp  loc_06B6
06CB:               loc_06CB:
06CB: 11 00 09              lxi  d, screen_data
06CE: CD 5B 01              call paint_screen
06D1: 21 8E 01              lxi  h, 018Eh
06D4: 36 30                 mvi  m, 30h                  ; '0'
06D6: 21 4C 06              lxi  h, 064Ch
06D9: C3 11 07              jmp  loc_0711
06DC:               loc_06DC:
06DC: CD 03 F8              call monitor_cin
06DF: FE 50                 cpi  50h     ; 'P' — play
06E1: CA 2A 01              jz   run_game
06E4: FE 45                 cpi  45h     ; 'E' — exit (back to monitor)
06E6: CA 6C F8              jz   monitor_prompt
06E9: FE 4C                 cpi  4Ch     ; 'L'
06EB: C2 2B 07              jnz  loc_072B
06EE: 21 4C 06              lxi  h, 064Ch
06F1: 7E                    mov  a, m
06F2: FE 20                 cpi  20h     ; ' '
06F4: C2 11 07              jnz  loc_0711
06F7: 36 40                 mvi  m, 40h                  ; '@'
06F9: 21 5D 07              lxi  h, msg_cursor_r19_c21
06FC: CD 18 F8              call monitor_puts
06FF: 0E 32                 mvi  c, 32h                  ; '2'
0701: CD 09 F8              call monitor_cout
0704: 21 AC 01              lxi  h, 01ACh
0707: 36 40                 mvi  m, 40h                  ; '@'
0709: 21 42 02              lxi  h, 0242h
070C: 36 40                 mvi  m, 40h                  ; '@'
070E: C3 DC 06              jmp  loc_06DC
0711:               loc_0711:
0711: 36 20                 mvi  m, 20h                  ; ' '
0713: 21 AC 01              lxi  h, 01ACh
0716: 36 20                 mvi  m, 20h                  ; ' '
0718: 21 42 02              lxi  h, 0242h
071B: 36 20                 mvi  m, 20h                  ; ' '
071D: 21 5D 07              lxi  h, msg_cursor_r19_c21
0720: CD 18 F8              call monitor_puts
0723: 0E 31                 mvi  c, 31h     ; '1'
0725: CD 09 F8              call monitor_cout
0728: C3 DC 06              jmp  loc_06DC
072B:               loc_072B:
072B: FE 53                 cpi  53h                     ; 'S'
072D: C2 DC 06              jnz  loc_06DC
0730: 21 8E 01              lxi  h, 018Eh
0733: 7E                    mov  a, m
0734: FE 00                 cpi  00h
0736: CA 4D 07              jz   loc_074D
0739: D6 08                 sui  08h
073B: 77                    mov  m, a
073C: 21 62 07              lxi  h, msg_cursor_r21_c21
073F: CD 18 F8              call monitor_puts
0742: CD 21 F8              call monitor_curc
0745: 3C                    inr  a
0746: 4F                    mov  c, a
0747: CD 09 F8              call monitor_cout
074A: C3 DC 06              jmp  loc_06DC
074D:               loc_074D:
074D: 36 30                 mvi  m, 30h     ; '0'
074F: 21 62 07              lxi  h, msg_cursor_r21_c21
0752: CD 18 F8              call monitor_puts
0755: 0E 31                 mvi  c, 31h     ; '1'
0757: CD 09 F8              call monitor_cout
075A: C3 DC 06              jmp  loc_06DC

075D:               msg_cursor_r19_c21:                             ; offset=075Dh
075D: 1B 59 33 35           db   1Bh, "Y", 33h, 35h, 0
0761: 00
0762:               msg_cursor_r21_c21:                             ; offset=0762h
0762: 1B 59 35 35           db   1Bh, "Y", 35h, 35h, 0
0766: 00

                    ; "поздравляю с победой!" + 5 beeps (07h), at screen home.
0767:               msg_congrats:                                   ; offset=0767h
0767: 1B 59 20 20           db   1Bh, "Y  "                      ; ESC-Y home cursor (row 0, col 0)
076B: 70 6F 7A 64           db   "pozdrawlq` s pobedoj!"
076F: 72 61 77 6C
0773: 71 60 20 73
0777: 20 70 6F 62
077B: 65 64 6F 6A
077F: 21
0780: 07 07 07 07           db   07h, 07h, 07h, 07h, 07h         ; 5 bells
0784: 07
0785: 00                    db   0

                    ; Blanks at screen home — flashed alternately with msg_congrats for a blinking effect.
0786:               msg_clear_top:                                  ; offset=0786h
0786: 1B 59 20 20           db   1Bh, "Y  "                      ; ESC-Y home cursor
078A: 20 20 20 20           db   "                      "         ; 22 spaces
078E: 20 20 20 20
0792: 20 20 20 20
0796: 20 20 20 20
079A: 20 20 20 20
079E: 20 20
07A0: 00                    db   0

07A1:               loc_07A1:
07A1: 16 0A                 mvi  d, 0Ah
07A3:               loc_07A3:
07A3: 21 67 07              lxi  h, msg_congrats
07A6: CD 18 F8              call monitor_puts
07A9: 01 FF 07              lxi  b, 07FFh
07AC: CD 8F 01              call delay_bc
07AF: 21 86 07              lxi  h, msg_clear_top
07B2: CD 18 F8              call monitor_puts
07B5: 01 FF 07              lxi  b, 07FFh
07B8: CD 8F 01              call delay_bc
07BB: 15                    dcr  d
07BC: C2 A3 07              jnz  loc_07A3
07BF: C3 00 01              jmp  loc_0100
                    ; Locate marker glyphs that screen_data painted into video memory,
                    ; and cache their addresses for fast lookup during gameplay.
                    ;   0812h : address of the flower (09h) glyph
                    ;   0805h : address of the first  'U' (55h) glyph
                    ;   0807h : address of the second 'U' glyph
07C2:               find_player_and_stone:                                       ; offset=07C2h
07C2: 06 09                 mvi  b, 09h                             ; flower glyph
07C4: 21 C1 77              lxi  h, video_memory + 3*video_width + 7
07C7: CD E0 07              call find_byte_b
07CA: 22 12 08              shld var_0812
07CD: 06 55                 mvi  b, CHR_STONEHOLDER
07CF: 21 C1 77              lxi  h, video_memory + 3*video_width + 7
07D2: CD E0 07              call find_byte_b
07D5: 22 05 08              shld var_0805
07D8: 23                    inx  h                                  ; resume past the first 'U'
07D9: CD E0 07              call find_byte_b
07DC: 22 07 08              shld var_0807
07DF: C9                    ret

                    ; Scan memory forward from HL for the byte in B. Returns HL pointing at
                    ; the first matching byte. No bounds check - caller guarantees B exists.
07E0:               find_byte_b:                                    ; offset=07E0h
07E0: 7E                    mov  a, m
07E1: B8                    cmp  b
07E2: C8                    rz
07E3: 23                    inx  h
07E4: C3 E0 07              jmp  find_byte_b
07E7:               loc_07E7:
07E7: 01 FF FF              lxi  b, 0FFFFh
07EA: CD 8F 01              call delay_bc
07ED: 21 E8 08              lxi  h, msg_clear_ready
07F0: CD 18 F8              call monitor_puts
07F3: C3 97 01              jmp  new_life

                    ; ===========================================================================
                    ; RAM data region. Initial byte values below are whatever the assembler left;
                    ; the boot code at loc_0100 overwrites the ones the game actually reads
                    ; before use. They still need to be preserved for a byte-exact round-trip.
                    ; ===========================================================================

                    ; 10 bytes of zero padding after the last code.               ; offset=07F6h
07F6: 00 00 00 00           db   00h, 00h, 00h, 00h, 00h, 00h, 00h, 00h, 00h, 00h
07FA: 00 00 00 00
07FE: 00 00

0800: 77            var_player_addr:       db   77h                                       ; offset=0800h
0801: 7E            var_0801:       db   7Eh                                       ; offset=0801h
0802: 2A            var_player_stat:       db   2Ah                                       ; 0802h: tile under the player (PlayerStat)
0803: 00            var_key:       db   00h                                       ; 0803h: direction flag (bit 7 mask in ani 80h)
0804: 00            var_jump_byte:       db   00h                                       ; offset=0804h
                    ; 0805h:0806h — address of 1st 'U' marker found by find_player_and_stone
0805: 79 78         var_0805:       db   79h, 78h
                    ; 0807h:0808h — address of 2nd 'U' marker
0807: 83 78         var_0807:       db   83h, 78h
                    ; 0809h..080Ch — prng_state (PRNG 32-bit state, reseeded at boot to 5A 34 17 71)
0809: 5A 34 17 71           db   5Ah, 34h, 17h, 71h
080D: 9E            var_080D:       db   9Eh                                       ; offset=080Dh
080E: 7D            var_080E:       db   7Dh
080F: 00            var_080F:       db   00h                                       ; offset=080Fh
0810: 08            var_0810:       db   08h
0811: FF            var_dead:       db   0FFh                                      ; offset=0811h
                    ; 0812h:0813h — address of flower marker
0812: DB 7D         var_0812:       db   0DBh, 7Dh
                    ; HUD BCD counters (see CLAUDE.md "Known game concepts")
0814: 07            var_attempts:       db   07h                                       ; 0814h BCD counter
0815: 35            var_time:       db   35h                                       ; 0815h BCD counter
0816: 08            var_tick:       db   08h                                       ; offset=0816h
0817: 01            var_level:       db   01h                                       ; 0817h BCD counter (boot = 01h)
                    ; 0818h:0819h — 4-digit BCD score (lo, hi)
0818: 00            var_score_lo:       db   00h         ; score lo (BCD)
0819: 00            var_score_hi:       db   00h         ; score hi (BCD)
081A: 00            var_exit_touched:       db   00h                                       ; offset=081Ah
                    ; 081Bh:081Ch — 16-bit pointer, initialized at boot to 0862h (table base)
081B: 62 08         var_081B:       db   62h, 08h

                    ; 3 bytes of zero padding                                     ; offset=081Dh
081D: 00 00 00              db   00h, 00h, 00h

                    ; Table of 16 x 4-byte records. Each record = [video_addr_lo,
                    ; video_addr_hi, byte, byte]. The 16-bit address points into video memory
                    ; (76D0h..7FF3h); the trailing two bytes are likely [glyph/count, tile_type].
                    ; Terminated by FFFFh sentinel at 0860h.
0820:               stone_table:                                     ; offset=0820h
0820: 8C 7E 00 08           db   8Ch, 7Eh, 00h, 08h      ; 7E8Ch + 00 08
0824: A3 7E 00 08           db   0A3h, 7Eh, 00h, 08h     ; 7EA3h + 00 08
0828: EC 7A 00 18           db   0ECh, 7Ah, 00h, 18h     ; 7AECh + 00 18
082C: 9B 7E 00 18           db   9Bh, 7Eh, 00h, 18h      ; 7E9Bh + 00 18
0830: 77 7E 09 08           db   77h, 7Eh, 09h, 08h      ; 7E77h + 09 08
0834: 7A 7E 00 08           db   7Ah, 7Eh, 00h, 08h      ; 7E7Ah + 00 08
0838: 83 78 55 1A           db   83h, 78h, 55h, 1Ah      ; 7883h + 'U' 1A
083C: 9D 7D 00 08           db   9Dh, 7Dh, 00h, 08h      ; 7D9Dh + 00 08
0840: F2 7A 20 18           db   0F2h, 7Ah, 20h, 18h     ; 7AF2h + ' ' 18
0844: 92 7B 00 18           db   92h, 7Bh, 00h, 18h      ; 7B92h + 00 18
0848: 9E 79 00 1A           db   9Eh, 79h, 00h, 1Ah      ; 799Eh + 00 1A
084C: 90 7B 00 18           db   90h, 7Bh, 00h, 18h      ; 7B90h + 00 18
0850: 8B 7A 48 1A           db   8Bh, 7Ah, 48h, 1Ah      ; 7A8Bh + 'H' 1A
0854: 92 7B 20 18           db   92h, 7Bh, 20h, 18h      ; 7B92h + ' ' 18
0858: D1 7B 00 1A           db   0D1h, 7Bh, 00h, 1Ah     ; 7BD1h + 00 1A
085C: 8B 7A 20 1A           db   8Bh, 7Ah, 20h, 1Ah      ; 7A8Bh + ' ' 1A
0860: FF FF                 db   0FFh, 0FFh              ; offset=0860h — end-of-table sentinel

                    ; Level-pointer table. var_081B is initialized to 0862h and advanced by 2
                    ; bytes each time the player starts a new level (at run_game). Each entry
                    ; is a 16-bit pointer to RLE-encoded screen data for one level. 0000h
                    ; terminates the table (game won). 27 entries + sentinel = 7 unique levels
                    ; played in a progressive "each round adds one rung" pattern:
                    ;   R1: [A],          R2: [B,A],        R3: [B,C,A],
                    ;   R4: [B,C,D,A],    R5: [B,C,D,E,A],  R6: [B,C,D,E,F,A],
                    ;   R7: [B,C,D,E,F,G]
                    ; where A=0C40, B=0E20, C=13A0, D=1080, E=15D0, F=18D0, G=1C00.
0862:               level_table:                                    ; offset=0862h
0862: 40 0C                 dw   level_A                                           ; R1: A
0864: 20 0E 40 0C           dw   level_B, level_A                                  ; R2
0868: 20 0E A0 13           dw   level_B, level_C, level_A                         ; R3
086C: 40 0C
086E: 20 0E A0 13           dw   level_B, level_C, level_D, level_A                ; R4
0872: 80 10 40 0C
0876: 20 0E A0 13           dw   level_B, level_C, level_D, level_E, level_A       ; R5
087A: 80 10 D0 15
087E: 40 0C
0880: 20 0E A0 13           dw   level_B, level_C, level_D, level_E, level_F, level_A  ; R6
0884: 80 10 D0 15
0888: D0 18 40 0C
088C: 20 0E A0 13           dw   level_B, level_C, level_D, level_E, level_F, level_G  ; R7
0890: 80 10 D0 15
0894: D0 18 00 1C
0898: 00 00                 dw   0000h                                             ; sentinel: game won

                    ; 54 bytes of zero padding up to msg_get_ready at 08D0h.     ; offset=089Ah
089A: 00 00 00 00           db   00h, 00h, 00h, 00h, 00h, 00h
089E: 00 00
08A0: 00 00 00 00           db   00h, 00h, 00h, 00h, 00h, 00h, 00h, 00h
08A4: 00 00 00 00
08A8: 00 00 00 00           db   00h, 00h, 00h, 00h, 00h, 00h, 00h, 00h
08AC: 00 00 00 00
08B0: 00 00 00 00           db   00h, 00h, 00h, 00h, 00h, 00h, 00h, 00h
08B4: 00 00 00 00
08B8: 00 00 00 00           db   00h, 00h, 00h, 00h, 00h, 00h, 00h, 00h
08BC: 00 00 00 00
08C0: 00 00 00 00           db   00h, 00h, 00h, 00h, 00h, 00h, 00h, 00h
08C4: 00 00 00 00
08C8: 00 00 00 00           db   00h, 00h, 00h, 00h, 00h, 00h, 00h, 00h
08CC: 00 00 00 00
                    ; "приготовьтесь!" (get ready) + 5 bells, at row 24 col 48.
08D0:               msg_get_ready:                                  ; offset=08D0h
08D0: 1B 59 38 50           db   1Bh, "Y", 38h, 50h              ; ESC-Y row 24, col 48
08D4: 70 72 69 67           db   "prigotowxtesx!"
08D8: 6F 74 6F 77
08DC: 78 74 65 73
08E0: 78 21
08E2: 07 07 07 07           db   07h, 07h, 07h, 07h, 07h         ; 5 bells
08E6: 07
08E7: 00                    db   0

                    ; 14 blanks at row 24 col 48 + 5 bells — clears the "get ready" text.
08E8:               msg_clear_ready:                                ; offset=08E8h
08E8: 1B 59 38 50           db   1Bh, "Y", 38h, 50h              ; ESC-Y row 24, col 48
08EC: 20 20 20 20           db   "              "                 ; 14 spaces
08F0: 20 20 20 20
08F4: 20 20 20 20
08F8: 20 20
08FA: 07 07 07 07           db   07h, 07h, 07h, 07h, 07h         ; 5 bells
08FE: 07
08FF: 00                    db   0

                    ; =============================================================================
                    ; Screen data — RLE-compressed video memory snapshots.
                    ; =============================================================================
                    ;
                    ; Contains the title/menu screen followed by 7 level maps (A..G). The entry
                    ; points are pulled from level_table; each stream is decoded by paint_screen.
                    ;
                    ; Decoder (see paint_screen at 015Bh):
                    ;   destination starts at video_memory + 3*video_width + 7  (= 77C1h,
                    ;     i.e. row 3, col 7, just below the title bar and above the status row)
                    ;   destination runs until HL = 7FA0h (row 28, col 72), i.e. a flat
                    ;     stretch of 2015 bytes of video memory
                    ;
                    ; Stream format (one byte per source position, except for the RLE escape):
                    ;   NN (00h..0FEh) — literal: write NN to the destination and advance 1
                    ;   FFh NN         — run: write NN zero bytes to the destination
                    ;                   (NN ranges 00h..FFh; 0 means "skip this escape")
                    ;
                    ; Notes:
                    ;   * Only runs of ZERO (blank cell) are compressed — any other byte is
                    ;     emitted literally, even when it repeats.
                    ;   * There is NO explicit stream terminator — the decoder stops the moment
                    ;     HL crosses into 7FA0h. Each level stream is sized to exactly fill
                    ;     2015 bytes of output regardless of how many source bytes it took.
                    ;   * Typical compressed level size is ~800 bytes; title screen is ~825
                    ;     bytes. Compression ratio ~2.5x over the raw 2015-byte playfield.
                    ;   * Glyphs used are the RK86 character set (see info/rk86-charmap.md):
                    ;     block-drawing 00h..1Fh, ASCII 20h..5Fh, Cyrillic 60h..7Fh.
                    ;
                    ; Human-readable renderings of each screen live under `levels/` and can be
                    ; regenerated with `python3 render_screen.py --extract`.
                    ; =============================================================================
0900:               screen_data:                                    ; offset=0900h

                    ; --- TITLE / MENU screen ---
0900: FF 55 4F 4F           db   0FFh, 55h, 4Fh, 4Fh, 4Fh, 00h, 4Fh, 4Fh, 4Fh, 4Fh, 0FFh, 02h, 4Fh, 4Fh, 4Fh, 0FFh   ; 0900h
0904: 4F 00 4F 4F
0908: 4F 4F FF 02
090C: 4F 4F 4F FF
0910: 02 4F 4F 4F           db   02h, 4Fh, 4Fh, 4Fh, 4Fh, 4Fh, 00h, 4Fh, 0FFh, 03h, 4Fh, 00h, 4Fh, 0FFh, 03h, 4Fh
0914: 4F 4F 00 4F
0918: FF 03 4F 00
091C: 4F FF 03 4F
0920: 00 4F FF 03           db   00h, 4Fh, 0FFh, 03h, 4Fh, 0FFh, 05h, 4Fh, 4Fh, 4Fh, 0FFh, 08h, 4Fh, 0FFh, 16h, 4Fh
0924: 4F FF 05 4F
0928: 4F 4F FF 08
092C: 4F FF 16 4F
0930: FF 02 4F 00           db   0FFh, 02h, 4Fh, 00h, 4Fh, 0FFh, 04h, 4Fh, 0FFh, 03h, 4Fh, 0FFh, 03h, 4Fh, 0FFh, 03h
0934: 4F FF 04 4F
0938: FF 03 4F FF
093C: 03 4F FF 03
0940: 4F FF 03 4F           db   4Fh, 0FFh, 03h, 4Fh, 00h, 4Fh, 0FFh, 03h, 4Fh, 00h, 4Fh, 0FFh, 03h, 4Fh, 0FFh, 04h
0944: 00 4F FF 03
0948: 4F 00 4F FF
094C: 03 4F FF 04
0950: 4F FF 02 4F           db   4Fh, 0FFh, 02h, 4Fh, 0FFh, 07h, 4Fh, 4Fh, 0FFh, 16h, 4Fh, 0FFh, 02h, 4Fh, 00h, 4Fh
0954: FF 07 4F 4F
0958: FF 16 4F FF
095C: 02 4F 00 4F
0960: 4F 4F FF 02           db   4Fh, 4Fh, 0FFh, 02h, 4Fh, 0FFh, 07h, 4Fh, 0FFh, 03h, 4Fh, 4Fh, 4Fh, 4Fh, 4Fh, 00h
0964: 4F FF 07 4F
0968: FF 03 4F 4F
096C: 4F 4F 4F 00
0970: 4F FF 02 4F           db   4Fh, 0FFh, 02h, 4Fh, 4Fh, 00h, 4Fh, 0FFh, 03h, 4Fh, 0FFh, 03h, 4Fh, 0FFh, 03h, 4Fh
0974: 4F 00 4F FF
0978: 03 4F FF 03
097C: 4F FF 03 4F
0980: FF 08 4F FF           db   0FFh, 08h, 4Fh, 0FFh, 16h, 4Fh, 0FFh, 02h, 4Fh, 00h, 4Fh, 0FFh, 04h, 4Fh, 0FFh, 07h
0984: 16 4F FF 02
0988: 4F 00 4F FF
098C: 04 4F FF 07
0990: 4F FF 03 4F           db   4Fh, 0FFh, 03h, 4Fh, 0FFh, 03h, 4Fh, 00h, 4Fh, 00h, 4Fh, 00h, 4Fh, 00h, 4Fh, 0FFh
0994: FF 03 4F 00
0998: 4F 00 4F 00
099C: 4F 00 4F FF
09A0: 03 4F FF 03           db   03h, 4Fh, 0FFh, 03h, 4Fh, 4Fh, 4Fh, 4Fh, 4Fh, 0FFh, 02h, 4Fh, 4Fh, 4Fh, 0FFh, 03h
09A4: 4F 4F 4F 4F
09A8: 4F FF 02 4F
09AC: 4F 4F FF 03
09B0: 4F FF 16 4F           db   4Fh, 0FFh, 16h, 4Fh, 0FFh, 02h, 4Fh, 00h, 4Fh, 0FFh, 04h, 4Fh, 0FFh, 02h, 20h, 4Fh
09B4: FF 02 4F 00
09B8: 4F FF 04 4F
09BC: FF 02 20 4F
09C0: FF 03 4F FF           db   0FFh, 03h, 4Fh, 0FFh, 03h, 4Fh, 0FFh, 03h, 4Fh, 00h, 4Fh, 4Fh, 0FFh, 02h, 4Fh, 00h
09C4: 03 4F FF 03
09C8: 4F 00 4F 4F
09CC: FF 02 4F 00
09D0: 4F FF 03 4F           db   4Fh, 0FFh, 03h, 4Fh, 0FFh, 03h, 4Fh, 0FFh, 03h, 4Fh, 0FFh, 08h, 4Fh, 0FFh, 15h, 4Fh
09D4: FF 03 4F FF
09D8: 03 4F FF 08
09DC: 4F FF 15 4F
09E0: 4F FF 02 4F           db   4Fh, 0FFh, 02h, 4Fh, 00h, 4Fh, 4Fh, 4Fh, 4Fh, 0FFh, 02h, 4Fh, 4Fh, 4Fh, 0FFh, 04h
09E4: 00 4F 4F 4F
09E8: 4F FF 02 4F
09EC: 4F 4F FF 04
09F0: 4F FF 03 4F           db   4Fh, 0FFh, 03h, 4Fh, 0FFh, 03h, 4Fh, 00h, 4Fh, 0FFh, 03h, 4Fh, 20h, 4Fh, 4Fh, 4Fh
09F4: FF 03 4F 00
09F8: 4F FF 03 4F
09FC: 20 4F 4F 4F
0A00: 4F 4F 4F 4F           db   4Fh, 4Fh, 4Fh, 4Fh, 00h, 4Fh, 0FFh, 03h, 4Fh, 0FFh, 07h, 4Fh, 4Fh, 4Fh, 0FFh, 3Dh   ; 0A00h
0A04: 00 4F FF 03
0A08: 4F FF 07 4F
0A0C: 4F 4F FF 3D
0A10: 4F FF 8E 77           db   4Fh, 0FFh, 8Eh, 77h, 65h, 72h, 73h, 69h, 60h, 20h, 64h, 6Ch, 71h, 20h, 70h, 7Ch
0A14: 65 72 73 69
0A18: 60 20 64 6C
0A1C: 71 20 70 7C
0A20: 77 6D 20 22           db   77h, 6Dh, 20h, 22h, 72h, 61h, 64h, 69h, 6Fh, 2Dh, 38h, 36h, 72h, 6Bh, 22h, 0FFh
0A24: 72 61 64 69
0A28: 6F 2D 38 36
0A2C: 72 6B 22 FF
0A30: 32 72 61 7A           db   32h, 72h, 61h, 7Ah, 72h, 61h, 62h, 6Fh, 74h, 61h, 6Ch, 20h, 73h, 69h, 6Dh, 6Fh
0A34: 72 61 62 6F
0A38: 74 61 6C 20
0A3C: 73 69 6D 6F
0A40: 6E 6F 77 20           db   6Eh, 6Fh, 77h, 20h, 60h, 2Eh, 62h, 2Eh, 0FFh, 69h, 3Dh, 3Dh, 3Dh, 3Dh, 3Dh, 3Dh
0A44: 60 2E 62 2E
0A48: FF 69 3D 3D
0A4C: 3D 3D 3D 3D
0A50: 3D 3D 3D 3D           db   3Dh, 3Dh, 3Dh, 3Dh, 3Dh, 3Dh, 3Dh, 3Dh, 3Dh, 3Dh, 3Dh, 3Dh, 3Dh, 3Dh, 3Dh, 3Dh
0A54: 3D 3D 3D 3D
0A58: 3D 3D 3D 3D
0A5C: 3D 3D 3D 3D
0A60: 3D 3D 3D 3D           db   3Dh, 3Dh, 3Dh, 3Dh, 3Dh, 3Dh, 3Dh, 3Dh, 3Dh, 3Dh, 3Dh, 3Dh, 3Dh, 3Dh, 3Dh, 3Dh
0A64: 3D 3D 3D 3D
0A68: 3D 3D 3D 3D
0A6C: 3D 3D 3D 3D
0A70: 3D 3D 3D 3D           db   3Dh, 3Dh, 3Dh, 3Dh, 3Dh, 3Dh, 3Dh, 3Dh, 3Dh, 3Dh, 3Dh, 3Dh, 3Dh, 3Dh, 3Dh, 3Dh
0A74: 3D 3D 3D 3D
0A78: 3D 3D 3D 3D
0A7C: 3D 3D 3D 3D
0A80: 3D 3D 3D 3D           db   3Dh, 3Dh, 3Dh, 3Dh, 0FFh, 35h, 23h, 00h, 24h, 20h, 2Dh, 20h, 77h, 79h, 68h, 6Fh
0A84: FF 35 23 00
0A88: 24 20 2D 20
0A8C: 77 79 68 6F
0A90: 64 20 69 7A           db   64h, 20h, 69h, 7Ah, 20h, 75h, 72h, 6Fh, 77h, 6Eh, 71h, 0FFh, 19h, 50h, 20h, 2Dh
0A94: 20 75 72 6F
0A98: 77 6E 71 FF
0A9C: 19 50 20 2D
0AA0: 20 6E 61 7E           db   20h, 6Eh, 61h, 7Eh, 61h, 6Ch, 6Fh, 20h, 69h, 67h, 72h, 79h, 0FFh, 09h, 5Dh, 3Ch
0AA4: 61 6C 6F 20
0AA8: 69 67 72 79
0AAC: FF 09 5D 3C
0AB0: FF 06 23 00           db   0FFh, 06h, 23h, 00h, 0Bh, 20h, 2Dh, 20h, 6Fh, 7Eh, 65h, 6Eh, 78h, 20h, 70h, 6Ch
0AB4: 0B 20 2D 20
0AB8: 6F 7E 65 6E
0ABC: 78 20 70 6C
0AC0: 6F 68 61 71           db   6Fh, 68h, 61h, 71h, 20h, 7Bh, 74h, 75h, 6Bh, 61h, 0FFh, 16h, 4Ch, 20h, 2Dh, 20h
0AC4: 20 7B 74 75
0AC8: 6B 61 FF 16
0ACC: 4C 20 2D 20
0AD0: 75 73 74 61           db   75h, 73h, 74h, 61h, 6Eh, 6Fh, 77h, 6Bh, 61h, 20h, 73h, 6Ch, 6Fh, 76h, 6Eh, 6Fh
0AD4: 6E 6F 77 6B
0AD8: 61 20 73 6C
0ADC: 6F 76 6E 6F
0AE0: 73 74 69 00           db   73h, 74h, 69h, 00h, 5Dh, 3Ch, 20h, 77h, 61h, 7Bh, 0FFh, 02h, 23h, 00h, 2Eh, 20h
0AE4: 5D 3C 20 77
0AE8: 61 7B FF 02
0AEC: 23 00 2E 20
0AF0: 2D 20 6F 7E           db   2Dh, 20h, 6Fh, 7Eh, 65h, 6Eh, 78h, 20h, 68h, 69h, 74h, 72h, 61h, 71h, 20h, 7Bh
0AF4: 65 6E 78 20
0AF8: 68 69 74 72
0AFC: 61 71 20 7B
0B00: 74 75 6B 61           db   74h, 75h, 6Bh, 61h, 0FFh, 16h, 53h, 20h, 2Dh, 20h, 75h, 73h, 74h, 61h, 6Eh, 6Fh   ; 0B00h
0B04: FF 16 53 20
0B08: 2D 20 75 73
0B0C: 74 61 6E 6F
0B10: 77 6B 61 20           db   77h, 6Bh, 61h, 20h, 73h, 6Bh, 6Fh, 72h, 6Fh, 73h, 74h, 69h, 0FFh, 02h, 5Dh, 3Ch
0B14: 73 6B 6F 72
0B18: 6F 73 74 69
0B1C: FF 02 5D 3C
0B20: 00 68 6F 64           db   00h, 68h, 6Fh, 64h, 0FFh, 02h, 23h, 00h, 6Fh, 20h, 2Dh, 20h, 75h, 77h, 65h, 73h
0B24: FF 02 23 00
0B28: 6F 20 2D 20
0B2C: 75 77 65 73
0B30: 69 73 74 79           db   69h, 73h, 74h, 79h, 6Ah, 20h, 62h, 75h, 6Ch, 79h, 76h, 6Eh, 69h, 6Bh, 0FFh, 16h
0B34: 6A 20 62 75
0B38: 6C 79 76 6E
0B3C: 69 6B FF 16
0B40: 65 20 2D 20           db   65h, 20h, 2Dh, 20h, 77h, 79h, 68h, 6Fh, 64h, 20h, 77h, 20h, 6Dh, 6Fh, 6Eh, 69h
0B44: 77 79 68 6F
0B48: 64 20 77 20
0B4C: 6D 6F 6E 69
0B50: 74 6F 72 FF           db   74h, 6Fh, 72h, 0FFh, 05h, 5Dh, 3Ch, 0FFh, 06h, 23h, 00h, 1Eh, 20h, 2Dh, 20h, 70h
0B54: 05 5D 3C FF
0B58: 06 23 00 1E
0B5C: 20 2D 20 70
0B60: 72 69 71 74           db   72h, 69h, 71h, 74h, 6Eh, 61h, 71h, 20h, 77h, 65h, 7Dh, 78h, 0FFh, 3Bh, 23h, 00h
0B64: 6E 61 71 20
0B68: 77 65 7D 78
0B6C: FF 3B 23 00
0B70: 6E 20 2D 20           db   6Eh, 20h, 2Dh, 20h, 6Ch, 65h, 73h, 74h, 6Eh, 69h, 63h, 61h, 0FFh, 24h, 73h, 6Ch
0B74: 6C 65 73 74
0B78: 6E 69 63 61
0B7C: FF 24 73 6C
0B80: 6F 76 6E 6F           db   6Fh, 76h, 6Eh, 6Fh, 73h, 74h, 78h, 20h, 2Dh, 20h, 31h, 0FFh, 0Fh, 23h, 00h, 09h
0B84: 73 74 78 20
0B88: 2D 20 31 FF
0B8C: 0F 23 00 09
0B90: 20 2D 20 61           db   20h, 2Dh, 20h, 61h, 20h, 7Ch, 74h, 6Fh, 20h, 2Dh, 20h, 6Ch, 69h, 7Eh, 6Eh, 6Fh
0B94: 20 7C 74 6F
0B98: 20 2D 20 6C
0B9C: 69 7E 6E 6F
0BA0: 20 77 79 FF           db   20h, 77h, 79h, 0FFh, 38h, 23h, 0FFh, 03h, 75h, 20h, 70h, 20h, 72h, 20h, 61h, 20h
0BA4: 38 23 FF 03
0BA8: 75 20 70 20
0BAC: 72 20 61 20
0BB0: 77 20 6C 20           db   77h, 20h, 6Ch, 20h, 65h, 20h, 6Eh, 20h, 69h, 20h, 65h, 20h, 3Ah, 0FFh, 19h, 73h
0BB4: 65 20 6E 20
0BB8: 69 20 65 20
0BBC: 3A FF 19 73
0BC0: 6B 6F 72 6F           db   6Bh, 6Fh, 72h, 6Fh, 73h, 74h, 78h, 20h, 20h, 2Dh, 20h, 31h, 0FFh, 0Fh, 23h, 00h
0BC4: 73 74 78 20
0BC8: 20 2D 20 31
0BCC: FF 0F 23 00
0BD0: 77 70 72 61           db   77h, 70h, 72h, 61h, 77h, 6Fh, 2Ch, 20h, 77h, 6Ch, 65h, 77h, 6Fh, 2Ch, 20h, 77h
0BD4: 77 6F 2C 20
0BD8: 77 6C 65 77
0BDC: 6F 2C 20 77
0BE0: 77 65 72 68           db   77h, 65h, 72h, 68h, 20h, 69h, 0FFh, 36h, 23h, 00h, 77h, 6Eh, 69h, 7Ah, 20h, 70h
0BE4: 20 69 FF 36
0BE8: 23 00 77 6E
0BEC: 69 7A 20 70
0BF0: 6F 20 6C 65           db   6Fh, 20h, 6Ch, 65h, 73h, 74h, 6Eh, 69h, 63h, 65h, 20h, 2Dh, 20h, 6Bh, 6Ch, 61h
0BF4: 73 74 6E 69
0BF8: 63 65 20 2D
0BFC: 20 6B 6C 61
0C00: 77 69 2D FF           db   77h, 69h, 2Dh, 0FFh, 33h, 23h, 00h, 7Bh, 61h, 6Dh, 69h, 20h, 75h, 70h, 72h, 61h   ; 0C00h
0C04: 33 23 00 7B
0C08: 61 6D 69 20
0C0C: 75 70 72 61
0C10: 77 6C 65 6E           db   77h, 6Ch, 65h, 6Eh, 69h, 71h, 20h, 6Bh, 75h, 72h, 73h, 6Fh, 72h, 6Fh, 6Dh, 2Ch
0C14: 69 71 20 6B
0C18: 75 72 73 6F
0C1C: 72 6F 6D 2C
0C20: FF 0E 20 FF           db   0FFh, 0Eh, 20h, 0FFh, 24h, 23h, 00h, 70h, 72h, 79h, 76h, 6Fh, 6Bh, 20h, 2Dh, 20h
0C24: 24 23 00 70
0C28: 72 79 76 6F
0C2C: 6B 20 2D 20
0C30: 70 72 6F 62           db   70h, 72h, 6Fh, 62h, 65h, 6Ch, 2Eh, 0FFh, 57h, 76h, 0Ah, 0DAh, 2Ch, 0Bh, 0CDh, 48h
0C34: 65 6C 2E FF
0C38: 57 76 0A DA
0C3C: 2C 0B CD 48

                    ; --- LEVEL A (home rung) ---
0C40:               level_A:                                        ; offset=0C40h
0C40: FF 67 74 20           db   0FFh, 67h, 74h, 20h, 69h, 20h, 68h, 20h, 6Fh, 20h, 65h, 20h, 20h, 20h, 6Dh, 20h   ; 0C40h
0C44: 69 20 68 20
0C48: 6F 20 65 20
0C4C: 20 20 6D 20
0C50: 65 20 73 20           db   65h, 20h, 73h, 20h, 74h, 20h, 6Fh, 0FFh, 3Ch, 55h, 0FFh, 09h, 55h, 0FFh, 09h, 24h
0C54: 74 20 6F FF
0C58: 3C 55 FF 09
0C5C: 55 FF 09 24
0C60: FF 4D 48 FF           db   0FFh, 4Dh, 48h, 0FFh, 29h, 48h, 0FFh, 0Fh, 23h, 0FFh, 07h, 2Eh, 2Eh, 2Eh, 2Eh, 2Eh
0C64: 29 48 FF 0F
0C68: 23 FF 07 2E
0C6C: 2E 2E 2E 2E
0C70: FF 07 48 FF           db   0FFh, 07h, 48h, 0FFh, 27h, 3Dh, 3Dh, 48h, 3Dh, 3Dh, 3Dh, 3Dh, 3Dh, 3Dh, 3Dh, 3Dh
0C74: 27 3D 3D 48
0C78: 3D 3D 3D 3D
0C7C: 3D 3D 3D 3D
0C80: 3D 3D 3D 3D           db   3Dh, 3Dh, 3Dh, 3Dh, 3Dh, 3Dh, 3Dh, 3Dh, 3Dh, 6Eh, 3Dh, 3Dh, 3Dh, 3Dh, 3Dh, 3Dh
0C84: 3D 3D 3D 3D
0C88: 3D 6E 3D 3D
0C8C: 3D 3D 3D 3D
0C90: 3D 3D 3D 3D           db   3Dh, 3Dh, 3Dh, 3Dh, 3Dh, 3Dh, 3Dh, 3Dh, 3Dh, 3Dh, 3Dh, 3Dh, 3Dh, 0FFh, 28h, 48h
0C94: 3D 3D 3D 3D
0C98: 3D 3D 3D 3D
0C9C: 3D FF 28 48
0CA0: FF 11 48 FF           db   0FFh, 11h, 48h, 0FFh, 3Bh, 48h, 0FFh, 4Dh, 48h, 0FFh, 08h, 48h, 0FFh, 05h, 2Eh, 0FFh
0CA4: 3B 48 FF 4D
0CA8: 48 FF 08 48
0CAC: FF 05 2E FF
0CB0: 15 48 FF 24           db   15h, 48h, 0FFh, 24h, 3Dh, 3Dh, 3Dh, 3Dh, 48h, 3Dh, 3Dh, 3Dh, 3Dh, 3Dh, 3Dh, 3Dh
0CB4: 3D 3D 3D 3D
0CB8: 48 3D 3D 3D
0CBC: 3D 3D 3D 3D
0CC0: 3D 48 3D 3D           db   3Dh, 48h, 3Dh, 3Dh, 3Dh, 48h, 3Dh, 3Dh, 0FFh, 04h, 3Dh, 3Dh, 3Dh, 3Dh, 3Dh, 3Dh
0CC4: 3D 48 3D 3D
0CC8: FF 04 3D 3D
0CCC: 3D 3D 3D 3D
0CD0: 3D 3D 3D 3D           db   3Dh, 3Dh, 3Dh, 3Dh, 3Dh, 3Dh, 3Dh, 3Dh, 3Dh, 3Dh, 3Dh, 48h, 3Dh, 3Dh, 0FFh, 26h
0CD4: 3D 3D 3D 3D
0CD8: 3D 3D 3D 48
0CDC: 3D 3D FF 26
0CE0: 1E FF 08 48           db   1Eh, 0FFh, 08h, 48h, 0FFh, 1Bh, 48h, 0FFh, 28h, 20h, 0FFh, 08h, 20h, 0FFh, 05h, 3Dh
0CE4: FF 1B 48 FF
0CE8: 28 20 FF 08
0CEC: 20 FF 05 3D
0CF0: 2D 48 2D 3D           db   2Dh, 48h, 2Dh, 3Dh, 3Dh, 3Dh, 3Dh, 3Dh, 3Dh, 3Dh, 0FFh, 0Bh, 48h, 0FFh, 28h, 48h
0CF4: 3D 3D 3D 3D
0CF8: 3D 3D FF 0B
0CFC: 48 FF 28 48
0D00: FF 24 48 FF           db   0FFh, 24h, 48h, 0FFh, 27h, 3Dh, 48h, 3Dh, 3Dh, 3Dh, 3Dh, 3Dh, 3Dh, 3Dh, 3Dh, 3Dh   ; 0D00h
0D04: 27 3D 48 3D
0D08: 3D 3D 3D 3D
0D0C: 3D 3D 3D 3D
0D10: 3D 3D 3D FF           db   3Dh, 3Dh, 3Dh, 0FFh, 03h, 3Dh, 3Dh, 3Dh, 3Dh, 3Dh, 3Dh, 3Dh, 3Dh, 3Dh, 3Dh, 3Dh
0D14: 03 3D 3D 3D
0D18: 3D 3D 3D 3D
0D1C: 3D 3D 3D 3D
0D20: 3D 3D 00 3D           db   3Dh, 3Dh, 00h, 3Dh, 3Dh, 3Dh, 3Dh, 3Dh, 3Dh, 3Dh, 3Dh, 3Dh, 0FFh, 27h, 48h, 0FFh
0D24: 3D 3D 3D 3D
0D28: 3D 3D 3D 3D
0D2C: FF 27 48 FF
0D30: 4D 48 FF 4D           db   4Dh, 48h, 0FFh, 4Dh, 48h, 0FFh, 0Dh, 0Bh, 0FFh, 18h, 48h, 0FFh, 22h, 3Dh, 3Dh, 3Dh
0D34: 48 FF 0D 0B
0D38: FF 18 48 FF
0D3C: 22 3D 3D 3D
0D40: 3D 3D 3D 3D           db   3Dh, 3Dh, 3Dh, 3Dh, 3Dh, 3Dh, 3Dh, 3Dh, 3Dh, 3Dh, 0FFh, 02h, 3Dh, 3Dh, 3Dh, 3Dh
0D44: 3D 3D 3D 3D
0D48: 3D 3D FF 02
0D4C: 3D 3D 3D 3D
0D50: 3D 3D 3D 3D           db   3Dh, 3Dh, 3Dh, 3Dh, 3Dh, 3Dh, 3Dh, 3Dh, 3Dh, 3Dh, 0FFh, 04h, 3Dh, 3Dh, 3Dh, 3Dh
0D54: 3D 3D 3D 3D
0D58: 3D 3D FF 04
0D5C: 3D 3D 3D 3D
0D60: 3D 3D 3D 3D           db   3Dh, 3Dh, 3Dh, 3Dh, 3Dh, 3Dh, 48h, 3Dh, 3Dh, 3Dh, 3Dh, 3Dh, 0FFh, 16h, 23h, 0FFh
0D64: 3D 3D 48 3D
0D68: 3D 3D 3D 3D
0D6C: FF 16 23 FF
0D70: 31 48 FF 1B           db   31h, 48h, 0FFh, 1Bh, 23h, 0FFh, 31h, 48h, 0FFh, 1Bh, 23h, 09h, 0FFh, 0Fh, 3Dh, 3Dh
0D74: 23 FF 31 48
0D78: FF 1B 23 09
0D7C: FF 0F 3D 3D
0D80: 48 3D 3D 48           db   48h, 3Dh, 3Dh, 48h, 3Dh, 3Dh, 3Dh, 3Dh, 3Dh, 3Dh, 00h, 3Dh, 3Dh, 3Dh, 3Dh, 3Dh
0D84: 3D 3D 3D 3D
0D88: 3D 3D 00 3D
0D8C: 3D 3D 3D 3D
0D90: 48 3D 3D 3D           db   48h, 3Dh, 3Dh, 3Dh, 3Dh, 48h, 3Dh, 3Dh, 3Dh, 3Dh, 3Dh, 3Dh, 3Dh, 3Dh, 3Dh, 48h
0D94: 3D 48 3D 3D
0D98: 3D 3D 3D 3D
0D9C: 3D 3D 3D 48
0DA0: FF 0C 23 FF           db   0FFh, 0Ch, 23h, 0FFh, 0Eh, 23h, 3Dh, 0FFh, 0Dh, 3Dh, 3Dh, 0FFh, 2Eh, 23h, 0FFh, 0Eh
0DA4: 0E 23 3D FF
0DA8: 0D 3D 3D FF
0DAC: 2E 23 FF 0E
0DB0: 23 2A 2E FF           db   23h, 2Ah, 2Eh, 0FFh, 0Bh, 0Bh, 0FFh, 23h, 0Bh, 0FFh, 0Bh, 2Ah, 23h, 0FFh, 0Eh, 3Dh
0DB4: 0B 0B FF 23
0DB8: 0B FF 0B 2A
0DBC: 23 FF 0E 3D
0DC0: 3D 3D 3D 3D           db   3Dh, 3Dh, 3Dh, 3Dh, 3Dh, 3Dh, 3Dh, 3Dh, 3Dh, 3Dh, 3Dh, 3Dh, 3Dh, 3Dh, 3Dh, 3Dh
0DC4: 3D 3D 3D 3D
0DC8: 3D 3D 3D 3D
0DCC: 3D 3D 3D 3D
0DD0: 3D 3D 3D 3D           db   3Dh, 3Dh, 3Dh, 3Dh, 3Dh, 3Dh, 3Dh, 3Dh, 3Dh, 3Dh, 3Dh, 3Dh, 3Dh, 3Dh, 3Dh, 3Dh
0DD4: 3D 3D 3D 3D
0DD8: 3D 3D 3D 3D
0DDC: 3D 3D 3D 3D
0DE0: 3D 3D 3D 3D           db   3Dh, 3Dh, 3Dh, 3Dh, 3Dh, 3Dh, 3Dh, 3Dh, 3Dh, 3Dh, 3Dh, 3Dh, 3Dh, 3Dh, 3Dh, 3Dh
0DE4: 3D 3D 3D 3D
0DE8: 3D 3D 3D 3D
0DEC: 3D 3D 3D 3D
0DF0: 3D 3D 3D 3D           db   3Dh, 3Dh, 3Dh, 3Dh, 3Dh, 3Dh, 3Dh, 3Dh, 3Dh, 3Dh, 3Dh, 3Dh, 3Dh, 3Dh, 3Dh, 0FFh
0DF4: 3D 3D 3D 3D
0DF8: 3D 3D 3D 3D
0DFC: 3D 3D 3D FF
0E00: 0E 75 72 6F           db   0Eh, 75h, 72h, 6Fh, 77h, 65h, 6Eh, 78h, 0FFh, 06h, 70h, 6Fh, 70h, 79h, 74h, 6Bh   ; 0E00h
0E04: 77 65 6E 78
0E08: FF 06 70 6F
0E0C: 70 79 74 6B
0E10: 69 FF 06 6F           db   69h, 0FFh, 06h, 6Fh, 7Eh, 6Bh, 69h, 0FFh, 08h, 77h, 72h, 65h, 6Dh, 71h, 0FFh, 63h
0E14: 7E 6B 69 FF
0E18: 08 77 72 65
0E1C: 6D 71 FF 63

                    ; --- LEVEL B (first climb) ---
0E20:               level_B:                                        ; offset=0E20h
0E20: FF 18 55 FF           db   0FFh, 18h, 55h, 0FFh, 04h, 73h, 70h, 6Fh, 6Bh, 6Fh, 6Ah, 6Eh, 61h, 71h, 20h, 20h   ; 0E20h
0E24: 04 73 70 6F
0E28: 6B 6F 6A 6E
0E2C: 61 71 20 20
0E30: 70 72 6F 67           db   70h, 72h, 6Fh, 67h, 75h, 6Ch, 6Bh, 61h, 0FFh, 1Fh, 6Ch, 6Fh, 77h, 75h, 7Bh, 6Bh
0E34: 75 6C 6B 61
0E38: FF 1F 6C 6F
0E3C: 77 75 7B 6B
0E40: 61 FF 49 64           db   61h, 0FFh, 49h, 64h, 6Ch, 71h, 0FFh, 13h, 48h, 0FFh, 35h, 64h, 75h, 72h, 61h, 6Bh
0E44: 6C 71 FF 13
0E48: 48 FF 35 64
0E4C: 75 72 61 6B
0E50: 6F 77 FF 0E           db   6Fh, 77h, 0FFh, 0Eh, 3Dh, 3Dh, 3Dh, 3Dh, 0FFh, 1Dh, 24h, 0FFh, 1Ah, 21h, 0FFh, 12h
0E54: 3D 3D 3D 3D
0E58: FF 1D 24 FF
0E5C: 1A 21 FF 12
0E60: 48 00 2E FF           db   48h, 00h, 2Eh, 0FFh, 1Dh, 48h, 00h, 20h, 0FFh, 18h, 21h, 0FFh, 0Eh, 3Dh, 0FFh, 03h
0E64: 1D 48 00 20
0E68: FF 18 21 FF
0E6C: 0E 3D FF 03
0E70: 2D 2D 2D 3D           db   2Dh, 2Dh, 2Dh, 3Dh, 3Dh, 48h, 3Dh, 3Dh, 48h, 3Dh, 3Dh, 48h, 3Dh, 3Dh, 48h, 3Dh
0E74: 3D 48 3D 3D
0E78: 48 3D 3D 48
0E7C: 3D 3D 48 3D
0E80: 3D 48 2D FF           db   3Dh, 48h, 2Dh, 0FFh, 09h, 1Eh, 0FFh, 03h, 48h, 0FFh, 1Ah, 21h, 0FFh, 05h, 48h, 0FFh
0E84: 09 1E FF 03
0E88: 48 FF 1A 21
0E8C: FF 05 48 FF
0E90: 27 55 23 FF           db   27h, 55h, 23h, 0FFh, 03h, 48h, 0FFh, 1Ah, 21h, 0FFh, 04h, 3Dh, 48h, 3Dh, 3Dh, 3Dh
0E94: 03 48 FF 1A
0E98: 21 FF 04 3D
0E9C: 48 3D 3D 3D
0EA0: 3D 3D 48 3D           db   3Dh, 3Dh, 48h, 3Dh, 3Dh, 3Dh, 3Dh, 3Dh, 3Dh, 3Dh, 0FFh, 02h, 3Dh, 3Dh, 3Dh, 3Dh
0EA4: 3D 3D 3D 3D
0EA8: 3D 3D FF 02
0EAC: 3D 3D 3D 3D
0EB0: 3D 3D 3D 3D           db   3Dh, 3Dh, 3Dh, 3Dh, 3Dh, 3Dh, 3Dh, 3Dh, 3Dh, 48h, 3Dh, 3Dh, 3Dh, 0FFh, 02h, 3Dh
0EB4: 3D 3D 3D 3D
0EB8: 3D 48 3D 3D
0EBC: 3D FF 02 3D
0EC0: 3D 3D 3D 3D           db   3Dh, 3Dh, 3Dh, 3Dh, 3Dh, 3Dh, 3Dh, 3Dh, 3Dh, 3Dh, 3Dh, 0FFh, 19h, 21h, 0FFh, 05h
0EC4: 3D 3D 3D 3D
0EC8: 3D 3D 3D FF
0ECC: 19 21 FF 05
0ED0: 6E FF 47 56           db   6Eh, 0FFh, 47h, 56h, 0FFh, 05h, 48h, 0FFh, 0Ch, 23h, 0FFh, 40h, 48h, 0FFh, 0Ah, 1Eh
0ED4: FF 05 48 FF
0ED8: 0C 23 FF 40
0EDC: 48 FF 0A 1E
0EE0: 00 23 FF 13           db   00h, 23h, 0FFh, 13h, 2Eh, 00h, 2Eh, 0FFh, 07h, 48h, 0FFh, 19h, 23h, 0FFh, 07h, 3Dh
0EE4: 2E 00 2E FF
0EE8: 07 48 FF 19
0EEC: 23 FF 07 3D
0EF0: 48 3D 3D 3D           db   48h, 3Dh, 3Dh, 3Dh, 3Dh, 3Dh, 3Dh, 3Dh, 3Dh, 3Dh, 3Dh, 3Dh, 00h, 3Dh, 3Dh, 3Dh
0EF4: 3D 3D 3D 3D
0EF8: 3D 3D 3D 3D
0EFC: 00 3D 3D 3D
0F00: 3D 3D FF 03           db   3Dh, 3Dh, 0FFh, 03h, 3Dh, 3Dh, 3Dh, 3Dh, 3Dh, 3Dh, 48h, 3Dh, 3Dh, 3Dh, 3Dh, 3Dh   ; 0F00h
0F04: 3D 3D 3D 3D
0F08: 3D 3D 48 3D
0F0C: 3D 3D 3D 3D
0F10: 3D 00 3D 3D           db   3Dh, 00h, 3Dh, 3Dh, 3Dh, 3Dh, 3Dh, 3Dh, 3Dh, 3Dh, 48h, 3Dh, 0FFh, 18h, 23h, 0FFh
0F14: 3D 3D 3D 3D
0F18: 3D 3D 48 3D
0F1C: FF 18 23 FF
0F20: 07 23 FF 2B           db   07h, 23h, 0FFh, 2Bh, 48h, 0FFh, 02h, 23h, 00h, 23h, 0FFh, 05h, 23h, 0FFh, 0Eh, 23h
0F24: 48 FF 02 23
0F28: 00 23 FF 05
0F2C: 23 FF 0E 23
0F30: 00 0B 00 0B           db   00h, 0Bh, 00h, 0Bh, 00h, 2Eh, 00h, 23h, 0FFh, 13h, 23h, 0FFh, 17h, 48h, 0FFh, 02h
0F34: 00 2E 00 23
0F38: FF 13 23 FF
0F3C: 17 48 FF 02
0F40: 23 00 23 FF           db   23h, 00h, 23h, 0FFh, 05h, 23h, 0FFh, 0Eh, 3Dh, 3Dh, 3Dh, 48h, 3Dh, 3Dh, 3Dh, 3Dh
0F44: 05 23 FF 0E
0F48: 3D 3D 3D 48
0F4C: 3D 3D 3D 3D
0F50: 00 00 48 FF           db   00h, 00h, 48h, 0FFh, 11h, 23h, 0FFh, 0Ch, 2Eh, 0FFh, 02h, 2Eh, 0FFh, 07h, 48h, 0FFh
0F54: 11 23 FF 0C
0F58: 2E FF 02 2E
0F5C: FF 07 48 FF
0F60: 02 23 48 2E           db   02h, 23h, 48h, 2Eh, 00h, 2Eh, 0Bh, 2Eh, 00h, 23h, 0FFh, 17h, 3Dh, 48h, 3Dh, 3Dh
0F64: 00 2E 0B 2E
0F68: 00 23 FF 17
0F6C: 3D 48 3D 3D
0F70: 3D 3D 3D 3D           db   3Dh, 3Dh, 3Dh, 3Dh, 3Dh, 0FFh, 04h, 3Dh, 3Dh, 3Dh, 3Dh, 3Dh, 3Dh, 3Dh, 0FFh, 02h
0F74: 3D FF 04 3D
0F78: 3D 3D 3D 3D
0F7C: 3D 3D FF 02
0F80: 3D 3D 3D 3D           db   3Dh, 3Dh, 3Dh, 3Dh, 3Dh, 3Dh, 3Dh, 3Dh, 3Dh, 3Dh, 3Dh, 0FFh, 02h, 3Dh, 3Dh, 3Dh
0F84: 3D 3D 3D 3D
0F88: 3D 3D 3D FF
0F8C: 02 3D 3D 3D
0F90: 3D 48 3D 3D           db   3Dh, 48h, 3Dh, 3Dh, 3Dh, 3Dh, 0FFh, 02h, 23h, 48h, 23h, 23h, 23h, 23h, 23h, 23h
0F94: 3D 3D FF 02
0F98: 23 48 23 23
0F9C: 23 23 23 23
0FA0: 23 FF 18 48           db   23h, 0FFh, 18h, 48h, 0FFh, 2Ch, 23h, 48h, 0FFh, 1Fh, 48h, 0FFh, 09h, 23h, 0FFh, 43h
0FA4: FF 2C 23 48
0FA8: FF 1F 48 FF
0FAC: 09 23 FF 43
0FB0: 48 FF 09 23           db   48h, 0FFh, 09h, 23h, 0Bh, 0FFh, 12h, 2Eh, 0FFh, 03h, 2Eh, 0FFh, 08h, 48h, 0FFh, 21h
0FB4: 0B FF 12 2E
0FB8: FF 03 2E FF
0FBC: 08 48 FF 21
0FC0: 3D 3D 3D 3D           db   3Dh, 3Dh, 3Dh, 3Dh, 3Dh, 3Dh, 3Dh, 3Dh, 3Dh, 0FFh, 02h, 3Dh, 3Dh, 3Dh, 3Dh, 3Dh
0FC4: 3D 3D 3D 3D
0FC8: 3D FF 02 3D
0FCC: 3D 3D 3D 3D
0FD0: 3D FF 03 3D           db   3Dh, 0FFh, 03h, 3Dh, 3Dh, 3Dh, 3Dh, 3Dh, 3Dh, 3Dh, 3Dh, 3Dh, 3Dh, 3Dh, 3Dh, 0FFh
0FD4: 3D 3D 3D 3D
0FD8: 3D 3D 3D 3D
0FDC: 3D 3D 3D FF
0FE0: 03 3D 3D 3D           db   03h, 3Dh, 3Dh, 3Dh, 3Dh, 3Dh, 3Dh, 3Dh, 3Dh, 3Dh, 48h, 3Dh, 0FFh, 17h, 23h, 0FFh
0FE4: 3D 3D 3D 3D
0FE8: 3D 3D 48 3D
0FEC: FF 17 23 FF
0FF0: 34 48 FF 09           db   34h, 48h, 0FFh, 09h, 23h, 0FFh, 0Eh, 23h, 0FFh, 1Ah, 0Bh, 0FFh, 19h, 48h, 0FFh, 09h
0FF4: 23 FF 0E 23
0FF8: FF 1A 0B FF
0FFC: 19 48 FF 09
1000: 23 FF 0E 23           db   23h, 0FFh, 0Eh, 23h, 0FFh, 02h, 09h, 0FFh, 0Eh, 2Ah, 0FFh, 08h, 23h, 0FFh, 0Fh, 2Ah   ; 1000h
1004: FF 02 09 FF
1008: 0E 2A FF 08
100C: 23 FF 0F 2A
1010: FF 09 48 FF           db   0FFh, 09h, 48h, 0FFh, 02h, 0Bh, 0FFh, 06h, 23h, 0FFh, 0Eh, 3Dh, 3Dh, 3Dh, 3Dh, 3Dh
1014: 02 0B FF 06
1018: 23 FF 0E 3D
101C: 3D 3D 3D 3D
1020: 3D 3D 3D 3D           db   3Dh, 3Dh, 3Dh, 3Dh, 3Dh, 3Dh, 3Dh, 3Dh, 3Dh, 3Dh, 3Dh, 3Dh, 3Dh, 3Dh, 3Dh, 3Dh
1024: 3D 3D 3D 3D
1028: 3D 3D 3D 3D
102C: 3D 3D 3D 3D
1030: 3D 3D 3D 3D           db   3Dh, 3Dh, 3Dh, 3Dh, 3Dh, 3Dh, 3Dh, 3Dh, 3Dh, 3Dh, 3Dh, 3Dh, 3Dh, 3Dh, 3Dh, 3Dh
1034: 3D 3D 3D 3D
1038: 3D 3D 3D 3D
103C: 3D 3D 3D 3D
1040: 3D 3D 3D 3D           db   3Dh, 3Dh, 3Dh, 3Dh, 3Dh, 3Dh, 3Dh, 3Dh, 3Dh, 3Dh, 3Dh, 3Dh, 3Dh, 3Dh, 3Dh, 3Dh
1044: 3D 3D 3D 3D
1048: 3D 3D 3D 3D
104C: 3D 3D 3D 3D
1050: 3D 3D 3D 3D           db   3Dh, 3Dh, 3Dh, 3Dh, 3Dh, 3Dh, 3Dh, 3Dh, 3Dh, 3Dh, 3Dh, 0FFh, 0Eh, 75h, 72h, 6Fh
1054: 3D 3D 3D 3D
1058: 3D 3D 3D FF
105C: 0E 75 72 6F
1060: 77 65 6E 78           db   77h, 65h, 6Eh, 78h, 20h, 20h, 20h, 0FFh, 03h, 70h, 6Fh, 70h, 79h, 74h, 6Bh, 69h
1064: 20 20 20 FF
1068: 03 70 6F 70
106C: 79 74 6B 69
1070: FF 06 6F 7E           db   0FFh, 06h, 6Fh, 7Eh, 6Bh, 69h, 0FFh, 08h, 77h, 72h, 65h, 6Dh, 71h, 0FFh, 63h, 76h
1074: 6B 69 FF 08
1078: 77 72 65 6D
107C: 71 FF 63 76

                    ; --- LEVEL D ---
1080:               level_D:                                        ; offset=1080h
1080: 00 23 FF 12           db   00h, 23h, 0FFh, 12h, 55h, 0FFh, 1Ch, 55h, 0FFh, 1Dh, 23h, 0FFh, 4Dh, 23h, 0FFh, 03h   ; 1080h
1084: 55 FF 1C 55
1088: FF 1D 23 FF
108C: 4D 23 FF 03
1090: 48 2E 2E 2E           db   48h, 2Eh, 2Eh, 2Eh, 2Eh, 2Eh, 48h, 0FFh, 04h, 48h, 2Eh, 2Eh, 2Eh, 2Eh, 48h, 0FFh
1094: 2E 2E 48 FF
1098: 04 48 2E 2E
109C: 2E 2E 48 FF
10A0: 04 48 2E 2E           db   04h, 48h, 2Eh, 2Eh, 2Eh, 2Eh, 48h, 0FFh, 04h, 23h, 00h, 2Eh, 0FFh, 04h, 2Eh, 0FFh
10A4: 2E 2E 48 FF
10A8: 04 23 00 2E
10AC: FF 04 2E FF
10B0: 02 48 FF 02           db   02h, 48h, 0FFh, 02h, 2Eh, 0FFh, 1Dh, 3Dh, 3Dh, 3Dh, 3Dh, 48h, 2Dh, 2Dh, 2Dh, 2Dh
10B4: 2E FF 1D 3D
10B8: 3D 3D 3D 48
10BC: 2D 2D 2D 2D
10C0: 2D 3D 3D 3D           db   2Dh, 3Dh, 3Dh, 3Dh, 3Dh, 3Dh, 48h, 3Dh, 3Dh, 3Dh, 3Dh, 3Dh, 3Dh, 3Dh, 48h, 3Dh
10C4: 3D 3D 48 3D
10C8: 3D 3D 3D 3D
10CC: 3D 3D 48 3D
10D0: 3D 3D 3D 3D           db   3Dh, 3Dh, 3Dh, 3Dh, 3Dh, 3Dh, 3Dh, 3Dh, 3Dh, 3Dh, 3Dh, 00h, 3Dh, 3Dh, 2Dh, 2Dh
10D4: 3D 3D 3D 3D
10D8: 3D 3D 3D 00
10DC: 3D 3D 2D 2D
10E0: 2D 3D 3D 3D           db   2Dh, 3Dh, 3Dh, 3Dh, 48h, 3Dh, 3Dh, 3Dh, 3Dh, 3Dh, 3Dh, 3Dh, 3Dh, 0FFh, 1Ch, 48h
10E4: 48 3D 3D 3D
10E8: 3D 3D 3D 3D
10EC: 3D FF 1C 48
10F0: FF 0A 48 FF           db   0FFh, 0Ah, 48h, 0FFh, 02h, 1Eh, 0FFh, 08h, 23h, 00h, 1Eh, 00h, 1Eh, 0FFh, 0Dh, 48h
10F4: 02 1E FF 08
10F8: 23 00 1E 00
10FC: 1E FF 0D 48
1100: FF 24 48 FF           db   0FFh, 24h, 48h, 0FFh, 0Ah, 48h, 0FFh, 0Bh, 3Dh, 3Dh, 3Dh, 3Dh, 3Dh, 3Dh, 3Dh, 3Dh   ; 1100h
1104: 0A 48 FF 0B
1108: 3D 3D 3D 3D
110C: 3D 3D 3D 3D
1110: 3D 3D 3D 3D           db   3Dh, 3Dh, 3Dh, 3Dh, 3Dh, 0FFh, 05h, 48h, 0FFh, 24h, 48h, 0FFh, 07h, 23h, 0FFh, 02h
1114: 3D FF 05 48
1118: FF 24 48 FF
111C: 07 23 FF 02
1120: 48 FF 09 48           db   48h, 0FFh, 09h, 48h, 0FFh, 02h, 77h, 65h, 73h, 65h, 6Ch, 79h, 6Ah, 0FFh, 03h, 48h
1124: FF 02 77 65
1128: 73 65 6C 79
112C: 6A FF 03 48
1130: FF 06 48 FF           db   0FFh, 06h, 48h, 0FFh, 05h, 2Dh, 48h, 2Dh, 2Dh, 48h, 2Dh, 0FFh, 19h, 48h, 0FFh, 07h
1134: 05 2D 48 2D
1138: 2D 48 2D FF
113C: 19 48 FF 07
1140: 3D 3D 3D 3D           db   3Dh, 3Dh, 3Dh, 3Dh, 3Dh, 3Dh, 3Dh, 48h, 3Dh, 2Dh, 2Dh, 2Dh, 3Dh, 48h, 3Dh, 3Dh
1144: 3D 3D 3D 48
1148: 3D 2D 2D 2D
114C: 3D 48 3D 3D
1150: 3D 3D 3D 3D           db   3Dh, 3Dh, 3Dh, 3Dh, 3Dh, 3Dh, 3Dh, 3Dh, 3Dh, 3Dh, 48h, 0FFh, 06h, 48h, 0FFh, 24h
1154: 3D 3D 3D 3D
1158: 3D 3D 48 FF
115C: 06 48 FF 24
1160: 48 FF 0C 48           db   48h, 0FFh, 0Ch, 48h, 0FFh, 02h, 1Eh, 0FFh, 06h, 48h, 00h, 74h, 75h, 6Eh, 6Eh, 65h
1164: FF 02 1E FF
1168: 06 48 00 74
116C: 75 6E 6E 65
1170: 6C 78 00 1E           db   6Ch, 78h, 00h, 1Eh, 48h, 0FFh, 06h, 48h, 0FFh, 24h, 48h, 0FFh, 0Bh, 3Dh, 48h, 3Dh
1174: 48 FF 06 48
1178: FF 24 48 FF
117C: 0B 3D 48 3D
1180: 3D 3D 3D 3D           db   3Dh, 3Dh, 3Dh, 3Dh, 3Dh, 3Dh, 3Dh, 3Dh, 48h, 3Dh, 3Dh, 3Dh, 3Dh, 3Dh, 3Dh, 3Dh
1184: 3D 3D 3D 3D
1188: 48 3D 3D 3D
118C: 3D 3D 3D 3D
1190: 3D 3D 3D 48           db   3Dh, 3Dh, 3Dh, 48h, 0FFh, 06h, 48h, 0FFh, 24h, 48h, 0FFh, 0Bh, 23h, 48h, 0FFh, 06h
1194: FF 06 48 FF
1198: 24 48 FF 0B
119C: 23 48 FF 06
11A0: 1E FF 0A 48           db   1Eh, 0FFh, 0Ah, 48h, 0FFh, 09h, 48h, 0FFh, 04h, 2Eh, 00h, 2Eh, 00h, 2Eh, 00h, 2Eh
11A4: FF 09 48 FF
11A8: 04 2E 00 2E
11AC: 00 2E 00 2E
11B0: FF 19 48 0B           db   0FFh, 19h, 48h, 0Bh, 0Bh, 0Bh, 0Bh, 0Bh, 0Bh, 0Bh, 0Bh, 0Bh, 2Eh, 00h, 3Dh, 3Dh
11B4: 0B 0B 0B 0B
11B8: 0B 0B 0B 0B
11BC: 2E 00 3D 3D
11C0: 3D 3D 3D 3D           db   3Dh, 3Dh, 3Dh, 3Dh, 3Dh, 3Dh, 3Dh, 3Dh, 3Dh, 3Dh, 3Dh, 3Dh, 3Dh, 3Dh, 3Dh, 3Dh
11C4: 3D 3D 3D 3D
11C8: 3D 3D 3D 3D
11CC: 3D 3D 3D 3D
11D0: 3D 48 FF 09           db   3Dh, 48h, 0FFh, 09h, 48h, 0FFh, 03h, 6Eh, 65h, 00h, 73h, 6Fh, 77h, 73h, 65h, 6Dh
11D4: 48 FF 03 6E
11D8: 65 00 73 6F
11DC: 77 73 65 6D
11E0: FF 18 48 00           db   0FFh, 18h, 48h, 00h, 4Dh, 00h, 6Fh, 00h, 50h, 00h, 67h, 00h, 48h, 0FFh, 14h, 48h
11E4: 4D 00 6F 00
11E8: 50 00 67 00
11EC: 48 FF 14 48
11F0: FF 02 48 23           db   0FFh, 02h, 48h, 23h, 0FFh, 05h, 48h, 0FFh, 03h, 2Eh, 0Bh, 0Bh, 0Bh, 0Bh, 0Bh, 0Bh
11F4: FF 05 48 FF
11F8: 03 2E 0B 0B
11FC: 0B 0B 0B 0B
1200: 0B 2E FF 18           db   0Bh, 2Eh, 0FFh, 18h, 48h, 0FFh, 09h, 48h, 3Dh, 3Dh, 3Dh, 3Dh, 3Dh, 1Eh, 2Dh, 3Dh   ; 1200h
1204: 48 FF 09 48
1208: 3D 3D 3D 3D
120C: 3D 1E 2D 3D
1210: 3D 00 2D 3D           db   3Dh, 00h, 2Dh, 3Dh, 3Dh, 3Dh, 3Dh, 3Dh, 3Dh, 3Dh, 3Dh, 3Dh, 3Dh, 3Dh, 3Dh, 48h
1214: 3D 3D 3D 3D
1218: 3D 3D 3D 3D
121C: 3D 3D 3D 48
1220: 3D FF 05 48           db   3Dh, 0FFh, 05h, 48h, 0FFh, 04h, 6Dh, 00h, 6Fh, 00h, 72h, 00h, 67h, 0FFh, 19h, 48h
1224: FF 04 6D 00
1228: 6F 00 72 00
122C: 67 FF 19 48
1230: FF 07 2E 2E           db   0FFh, 07h, 2Eh, 2Eh, 48h, 0FFh, 17h, 48h, 0FFh, 06h, 48h, 0FFh, 20h, 23h, 0FFh, 0Bh
1234: 48 FF 17 48
1238: FF 06 48 FF
123C: 20 23 FF 0B
1240: 3D 3D 48 3D           db   3Dh, 3Dh, 48h, 3Dh, 3Dh, 3Dh, 3Dh, 3Dh, 2Dh, 2Dh, 3Dh, 3Dh, 3Dh, 3Dh, 2Dh, 2Dh
1244: 3D 3D 3D 3D
1248: 2D 2D 3D 3D
124C: 3D 3D 2D 2D
1250: 2D 2D 3D 3D           db   2Dh, 2Dh, 3Dh, 3Dh, 3Dh, 3Dh, 3Dh, 3Dh, 3Dh, 3Dh, 3Dh, 3Dh, 0FFh, 05h, 48h, 0FFh
1254: 3D 3D 3D 3D
1258: 3D 3D 3D 3D
125C: FF 05 48 FF
1260: 20 23 FF 0D           db   20h, 23h, 0FFh, 0Dh, 48h, 0FFh, 1Ch, 1Eh, 00h, 48h, 0FFh, 20h, 23h, 2Eh, 0FFh, 02h
1264: 48 FF 1C 1E
1268: 00 48 FF 20
126C: 23 2E FF 02
1270: 2E FF 03 2E           db   2Eh, 0FFh, 03h, 2Eh, 0FFh, 05h, 48h, 0FFh, 0Fh, 0Bh, 0FFh, 02h, 0Bh, 0FFh, 08h, 0Bh
1274: FF 05 48 FF
1278: 0F 0B FF 02
127C: 0B FF 08 0B
1280: FF 02 48 FF           db   0FFh, 02h, 48h, 0FFh, 05h, 2Dh, 2Dh, 2Dh, 2Dh, 2Dh, 2Dh, 0FFh, 15h, 23h, 3Dh, 3Dh
1284: 05 2D 2D 2D
1288: 2D 2D 2D FF
128C: 15 23 3D 3D
1290: 2D 2D 2D 3D           db   2Dh, 2Dh, 2Dh, 3Dh, 3Dh, 23h, 0FFh, 05h, 48h, 0FFh, 04h, 0Bh, 0FFh, 02h, 0Bh, 0FFh
1294: 3D 23 FF 05
1298: 48 FF 04 0B
129C: FF 02 0B FF
12A0: 02 0B FF 10           db   02h, 0Bh, 0FFh, 10h, 23h, 0FFh, 02h, 48h, 0FFh, 20h, 23h, 0FFh, 07h, 23h, 0FFh, 05h
12A4: 23 FF 02 48
12A8: FF 20 23 FF
12AC: 07 23 FF 05
12B0: 48 FF 0A 23           db   48h, 0FFh, 0Ah, 23h, 3Dh, 3Dh, 2Dh, 2Dh, 2Dh, 2Dh, 2Dh, 2Dh, 2Dh, 2Dh, 3Dh, 3Dh
12B4: 3D 3D 2D 2D
12B8: 2D 2D 2D 2D
12BC: 2D 2D 3D 3D
12C0: 3D 3D 3D 3D           db   3Dh, 3Dh, 3Dh, 3Dh, 3Dh, 0FFh, 02h, 48h, 0FFh, 20h, 23h, 0FFh, 02h, 3Dh, 3Dh, 3Dh
12C4: 3D FF 02 48
12C8: FF 20 23 FF
12CC: 02 3D 3D 3D
12D0: FF 02 23 FF           db   0FFh, 02h, 23h, 0FFh, 03h, 3Dh, 3Dh, 3Dh, 3Dh, 3Dh, 2Dh, 2Dh, 2Dh, 2Dh, 2Dh, 2Dh
12D4: 03 3D 3D 3D
12D8: 3D 3D 2D 2D
12DC: 2D 2D 2D 2D
12E0: 2D 3D 3D FF           db   2Dh, 3Dh, 3Dh, 0FFh, 13h, 48h, 0FFh, 06h, 09h, 00h, 48h, 0FFh, 08h, 23h, 0FFh, 0Eh
12E4: 13 48 FF 06
12E8: 09 00 48 FF
12EC: 08 23 FF 0E
12F0: 23 FF 03 24           db   23h, 0FFh, 03h, 24h, 0FFh, 03h, 23h, 0FFh, 09h, 3Dh, 3Dh, 0FFh, 0Ch, 0Bh, 0FFh, 0Ch
12F4: FF 03 23 FF
12F8: 09 3D 3D FF
12FC: 0C 0B FF 0C
1300: 48 FF 05 3D           db   48h, 0FFh, 05h, 3Dh, 3Dh, 3Dh, 48h, 3Dh, 3Dh, 0FFh, 06h, 23h, 0FFh, 0Eh, 23h, 2Ah   ; 1300h
1304: 3D 3D 48 3D
1308: 3D FF 06 23
130C: FF 0E 23 2A
1310: 00 24 24 24           db   00h, 24h, 24h, 24h, 00h, 2Ah, 23h, 00h, 2Eh, 0Bh, 2Eh, 0FFh, 11h, 2Eh, 0Bh, 2Eh
1314: 00 2A 23 00
1318: 2E 0B 2E FF
131C: 11 2E 0B 2E
1320: 0B 2E FF 07           db   0Bh, 2Eh, 0FFh, 07h, 2Eh, 2Ah, 00h, 48h, 0FFh, 07h, 2Ah, 48h, 0FFh, 03h, 2Eh, 0Bh
1324: 2E 2A 00 48
1328: FF 07 2A 48
132C: FF 03 2E 0B
1330: 2E FF 02 23           db   2Eh, 0FFh, 02h, 23h, 0FFh, 0Eh, 3Dh, 3Dh, 3Dh, 3Dh, 3Dh, 3Dh, 3Dh, 3Dh, 3Dh, 3Dh
1334: FF 0E 3D 3D
1338: 3D 3D 3D 3D
133C: 3D 3D 3D 3D
1340: 3D 3D 3D 3D           db   3Dh, 3Dh, 3Dh, 3Dh, 3Dh, 3Dh, 3Dh, 3Dh, 3Dh, 3Dh, 3Dh, 3Dh, 3Dh, 3Dh, 3Dh, 3Dh
1344: 3D 3D 3D 3D
1348: 3D 3D 3D 3D
134C: 3D 3D 3D 3D
1350: 3D 3D 3D 3D           db   3Dh, 3Dh, 3Dh, 3Dh, 3Dh, 3Dh, 3Dh, 3Dh, 3Dh, 3Dh, 3Dh, 3Dh, 3Dh, 3Dh, 3Dh, 3Dh
1354: 3D 3D 3D 3D
1358: 3D 3D 3D 3D
135C: 3D 3D 3D 3D
1360: 3D 3D 3D 3D           db   3Dh, 3Dh, 3Dh, 3Dh, 3Dh, 3Dh, 3Dh, 3Dh, 3Dh, 3Dh, 3Dh, 3Dh, 3Dh, 3Dh, 3Dh, 3Dh
1364: 3D 3D 3D 3D
1368: 3D 3D 3D 3D
136C: 3D 3D 3D 3D
1370: 3D 3D 3D 3D           db   3Dh, 3Dh, 3Dh, 3Dh, 3Dh, 3Dh, 0FFh, 0Eh, 75h, 72h, 6Fh, 77h, 65h, 6Eh, 78h, 0FFh
1374: 3D 3D FF 0E
1378: 75 72 6F 77
137C: 65 6E 78 FF
1380: 06 70 6F 70           db   06h, 70h, 6Fh, 70h, 79h, 74h, 6Bh, 69h, 0FFh, 06h, 6Fh, 7Eh, 6Bh, 69h, 0FFh, 08h
1384: 79 74 6B 69
1388: FF 06 6F 7E
138C: 6B 69 FF 08
1390: 77 72 65 6D           db   77h, 72h, 65h, 6Dh, 71h, 0FFh, 63h, 00h, 0FFh, 00h, 0FFh, 00h, 0FFh, 00h, 0FFh, 00h
1394: 71 FF 63 00
1398: FF 00 FF 00
139C: FF 00 FF 00

                    ; --- LEVEL C ---
13A0:               level_C:                                        ; offset=13A0h
13A0: 00 23 FF 17           db   00h, 23h, 0FFh, 17h, 55h, 0FFh, 02h, 70h, 6Fh, 70h, 72h, 79h, 67h, 75h, 6Eh, 7Eh   ; 13A0h
13A4: 55 FF 02 70
13A8: 6F 70 72 79
13AC: 67 75 6E 7E
13B0: 69 6B 69 FF           db   69h, 6Bh, 69h, 0FFh, 02h, 55h, 0FFh, 24h, 23h, 0FFh, 32h, 24h, 0FFh, 1Ah, 23h, 0FFh
13B4: 02 55 FF 24
13B8: 23 FF 32 24
13BC: FF 1A 23 FF
13C0: 02 09 FF 07           db   02h, 09h, 0FFh, 07h, 48h, 0FFh, 25h, 2Eh, 0Bh, 0Bh, 0Bh, 2Eh, 0FFh, 18h, 3Dh, 3Dh
13C4: 48 FF 25 2E
13C8: 0B 0B 0B 2E
13CC: FF 18 3D 3D
13D0: 3D 3D 3D 3D           db   3Dh, 3Dh, 3Dh, 3Dh, 3Dh, 3Dh, 3Dh, 3Dh, 3Dh, 48h, 3Dh, 0FFh, 22h, 48h, 3Dh, 3Dh
13D4: 3D 3D 3D 3D
13D8: 3D 48 3D FF
13DC: 22 48 3D 3D
13E0: 3D 3D 3D 3D           db   3Dh, 3Dh, 3Dh, 3Dh, 48h, 0FFh, 22h, 48h, 0FFh, 23h, 48h, 0FFh, 06h, 6Eh, 0FFh, 22h
13E4: 48 FF 22 48
13E8: FF 23 48 FF
13EC: 06 6E FF 22
13F0: 48 FF 11 2E           db   48h, 0FFh, 11h, 2Eh, 0FFh, 02h, 1Eh, 0FFh, 0Bh, 2Eh, 0FFh, 02h, 48h, 0FFh, 06h, 48h
13F4: FF 02 1E FF
13F8: 0B 2E FF 02
13FC: 48 FF 06 48
1400: FF 1F 3D 3D           db   0FFh, 1Fh, 3Dh, 3Dh, 3Dh, 48h, 3Dh, 3Dh, 3Dh, 3Dh, 3Dh, 0FFh, 05h, 3Dh, 0FFh, 04h   ; 1400h
1404: 3D 48 3D 3D
1408: 3D 3D 3D FF
140C: 05 3D FF 04
1410: 3D 3D 3D 3D           db   3Dh, 3Dh, 3Dh, 3Dh, 3Dh, 3Dh, 0FFh, 04h, 3Dh, 0FFh, 05h, 3Dh, 3Dh, 3Dh, 3Dh, 48h
1414: 3D 3D FF 04
1418: 3D FF 05 3D
141C: 3D 3D 3D 48
1420: 3D 3D FF 04           db   3Dh, 3Dh, 0FFh, 04h, 6Eh, 0FFh, 1Eh, 62h, 0FFh, 09h, 0Bh, 0Bh, 0Bh, 0Bh, 0Bh, 1Eh
1424: 6E FF 1E 62
1428: FF 09 0B 0B
142C: 0B 0B 0B 1E
1430: 0B 0B 0B 0B           db   0Bh, 0Bh, 0Bh, 0Bh, 0FFh, 06h, 0Bh, 0Bh, 0Bh, 0Bh, 1Eh, 0Bh, 0Bh, 0Bh, 0Bh, 0Bh
1434: FF 06 0B 0B
1438: 0B 0B 1E 0B
143C: 0B 0B 0B 0B
1440: FF 0B 2E FF           db   0FFh, 0Bh, 2Eh, 0FFh, 1Eh, 79h, 0FFh, 26h, 23h, 0FFh, 07h, 24h, 0FFh, 1Eh, 73h, 00h
1444: 1E 79 FF 26
1448: 23 FF 07 24
144C: FF 1E 73 00
1450: 23 2E 2E FF           db   23h, 2Eh, 2Eh, 0FFh, 07h, 48h, 0FFh, 06h, 48h, 0FFh, 06h, 48h, 0FFh, 09h, 1Eh, 0FFh
1454: 07 48 FF 06
1458: 48 FF 06 48
145C: FF 09 1E FF
1460: 02 23 FF 26           db   02h, 23h, 0FFh, 26h, 74h, 00h, 3Dh, 3Dh, 3Dh, 3Dh, 3Dh, 3Dh, 3Dh, 3Dh, 3Dh, 3Dh
1464: 74 00 3D 3D
1468: 3D 3D 3D 3D
146C: 3D 3D 3D 3D
1470: 48 3D 3D 48           db   48h, 3Dh, 3Dh, 48h, 3Dh, 3Dh, 3Dh, 3Dh, 3Dh, 3Dh, 48h, 3Dh, 3Dh, 3Dh, 3Dh, 48h
1474: 3D 3D 3D 3D
1478: 3D 3D 48 3D
147C: 3D 3D 3D 48
1480: 2D 3D 48 3D           db   2Dh, 3Dh, 48h, 3Dh, 3Dh, 3Dh, 3Dh, 3Dh, 3Dh, 0FFh, 02h, 3Dh, 3Dh, 3Dh, 3Dh, 3Dh
1484: 3D 3D 3D 3D
1488: 3D FF 02 3D
148C: 3D 3D 3D 3D
1490: 2E FF 21 72           db   2Eh, 0FFh, 21h, 72h, 0FFh, 0Bh, 48h, 0FFh, 08h, 23h, 00h, 2Eh, 00h, 1Eh, 0FFh, 02h
1494: FF 0B 48 FF
1498: 08 23 00 2E
149C: 00 1E FF 02
14A0: 23 23 FF 30           db   23h, 23h, 0FFh, 30h, 79h, 0FFh, 0Bh, 48h, 0FFh, 08h, 23h, 0FFh, 05h, 48h, 0FFh, 32h
14A4: 79 FF 0B 48
14A8: FF 08 23 FF
14AC: 05 48 FF 32
14B0: 6A 00 1E FF           db   6Ah, 00h, 1Eh, 0FFh, 09h, 48h, 0FFh, 08h, 3Dh, 3Dh, 3Dh, 48h, 3Dh, 3Dh, 3Dh, 0FFh
14B4: 09 48 FF 08
14B8: 3D 3D 3D 48
14BC: 3D 3D 3D FF
14C0: 3E 48 FF 41           db   3Eh, 48h, 0FFh, 41h, 73h, 0FFh, 03h, 23h, 2Eh, 0FFh, 06h, 48h, 0FFh, 18h, 0Bh, 0FFh
14C4: 73 FF 03 23
14C8: 2E FF 06 48
14CC: FF 18 0B FF
14D0: 05 48 FF 22           db   05h, 48h, 0FFh, 22h, 70h, 0FFh, 03h, 3Dh, 3Dh, 3Dh, 2Dh, 2Dh, 2Dh, 2Dh, 3Dh, 48h
14D4: 70 FF 03 3D
14D8: 3D 3D 2D 2D
14DC: 2D 2D 3D 48
14E0: 3D 3D 3D 3D           db   3Dh, 3Dh, 3Dh, 3Dh, 2Dh, 2Dh, 2Dh, 3Dh, 3Dh, 3Dh, 3Dh, 48h, 3Dh, 3Dh, 3Dh, 3Dh
14E4: 2D 2D 2D 3D
14E8: 3D 3D 3D 48
14EC: 3D 3D 3D 3D
14F0: 3D 3D 3D 3D           db   3Dh, 3Dh, 3Dh, 3Dh, 3Dh, 3Dh, 3Dh, 3Dh, 3Dh, 3Dh, 48h, 3Dh, 3Dh, 3Dh, 48h, 3Dh
14F4: 3D 3D 3D 3D
14F8: 3D 3D 48 3D
14FC: 3D 3D 48 3D
1500: 3D FF 20 75           db   3Dh, 0FFh, 20h, 75h, 0FFh, 2Ah, 48h, 0FFh, 22h, 73h, 0FFh, 2Ah, 48h, 0FFh, 22h, 6Bh   ; 1500h
1504: FF 2A 48 FF
1508: 22 73 FF 2A
150C: 48 FF 22 6B
1510: FF 17 2E FF           db   0FFh, 17h, 2Eh, 0FFh, 0Ah, 48h, 0FFh, 07h, 48h, 0FFh, 1Bh, 23h, 0FFh, 0Bh, 3Dh, 48h
1514: 0A 48 FF 07
1518: 48 FF 1B 23
151C: FF 0B 3D 48
1520: 3D FF 0F 3D           db   3Dh, 0FFh, 0Fh, 3Dh, 0Bh, 3Dh, 0FFh, 09h, 48h, 3Dh, 3Dh, 3Dh, 3Dh, 3Dh, 3Dh, 3Dh
1524: 0B 3D FF 09
1528: 48 3D 3D 3D
152C: 3D 3D 3D 3D
1530: 3D FF 0C 23           db   3Dh, 0FFh, 0Ch, 23h, 0FFh, 0Eh, 23h, 0FFh, 12h, 0Bh, 0FFh, 08h, 3Dh, 3Dh, 00h, 2Eh
1534: FF 0E 23 FF
1538: 12 0B FF 08
153C: 3D 3D 00 2E
1540: 00 3D 3D FF           db   00h, 3Dh, 3Dh, 0FFh, 07h, 48h, 0FFh, 14h, 23h, 0FFh, 0Eh, 23h, 0FFh, 02h, 2Ah, 0FFh
1544: 07 48 FF 14
1548: 23 FF 0E 23
154C: FF 02 2A FF
1550: 0D 2E 0B 0B           db   0Dh, 2Eh, 0Bh, 0Bh, 0Bh, 2Eh, 0FFh, 09h, 0Bh, 0FFh, 0Ah, 48h, 0FFh, 07h, 2Eh, 0Bh
1554: 0B 2E FF 09
1558: 0B FF 0A 48
155C: FF 07 2E 0B
1560: 2E 0B 2E 0B           db   2Eh, 0Bh, 2Eh, 0Bh, 2Eh, 0FFh, 03h, 2Ah, 0FFh, 02h, 23h, 0FFh, 0Eh, 3Dh, 3Dh, 3Dh
1564: 2E FF 03 2A
1568: FF 02 23 FF
156C: 0E 3D 3D 3D
1570: 3D 3D 3D 3D           db   3Dh, 3Dh, 3Dh, 3Dh, 3Dh, 3Dh, 3Dh, 3Dh, 3Dh, 3Dh, 3Dh, 3Dh, 3Dh, 3Dh, 3Dh, 3Dh
1574: 3D 3D 3D 3D
1578: 3D 3D 3D 3D
157C: 3D 3D 3D 3D
1580: 3D 3D 3D 3D           db   3Dh, 3Dh, 3Dh, 3Dh, 3Dh, 3Dh, 3Dh, 3Dh, 3Dh, 3Dh, 3Dh, 3Dh, 3Dh, 3Dh, 3Dh, 3Dh
1584: 3D 3D 3D 3D
1588: 3D 3D 3D 3D
158C: 3D 3D 3D 3D
1590: 3D 3D 3D 3D           db   3Dh, 3Dh, 3Dh, 3Dh, 3Dh, 3Dh, 3Dh, 3Dh, 3Dh, 3Dh, 3Dh, 3Dh, 3Dh, 3Dh, 3Dh, 3Dh
1594: 3D 3D 3D 3D
1598: 3D 3D 3D 3D
159C: 3D 3D 3D 3D
15A0: 3D 3D 3D 3D           db   3Dh, 3Dh, 3Dh, 3Dh, 3Dh, 3Dh, 3Dh, 3Dh, 3Dh, 3Dh, 3Dh, 3Dh, 3Dh, 0FFh, 0Eh, 75h
15A4: 3D 3D 3D 3D
15A8: 3D 3D 3D 3D
15AC: 3D FF 0E 75
15B0: 72 6F 77 65           db   72h, 6Fh, 77h, 65h, 6Eh, 78h, 0FFh, 06h, 70h, 6Fh, 70h, 79h, 74h, 6Bh, 69h, 0FFh
15B4: 6E 78 FF 06
15B8: 70 6F 70 79
15BC: 74 6B 69 FF
15C0: 06 6F 7E 6B           db   06h, 6Fh, 7Eh, 6Bh, 69h, 0FFh, 08h, 77h, 72h, 65h, 6Dh, 71h, 0FFh, 63h, 00h, 05h
15C4: 69 FF 08 77
15C8: 72 65 6D 71
15CC: FF 63 00 05

                    ; --- LEVEL E ---
15D0:               level_E:                                        ; offset=15D0h
15D0: 00 70 6F 64           db   00h, 70h, 6Fh, 64h, 27h, 65h, 6Dh, 0FFh, 09h, 6Fh, 74h, 64h, 79h, 68h, 0FFh, 02h   ; 15D0h
15D4: 27 65 6D FF
15D8: 09 6F 74 64
15DC: 79 68 FF 02
15E0: 77 FF 02 67           db   77h, 0FFh, 02h, 67h, 6Fh, 72h, 61h, 68h, 0FFh, 0Eh, 6Ch, 61h, 77h, 69h, 6Eh, 79h
15E4: 6F 72 61 68
15E8: FF 0E 6C 61
15EC: 77 69 6E 79
15F0: FF 0D 23 FF           db   0FFh, 0Dh, 23h, 0FFh, 0Fh, 2Bh, 0FFh, 05h, 24h, 0FFh, 21h, 1Eh, 0FFh, 02h, 21h, 0FFh
15F4: 0F 2B FF 05
15F8: 24 FF 21 1E
15FC: FF 02 21 FF
1600: 02 55 00 21           db   02h, 55h, 00h, 21h, 0FFh, 0Dh, 23h, 0FFh, 0Fh, 2Bh, 0FFh, 05h, 48h, 0FFh, 03h, 70h   ; 1600h
1604: FF 0D 23 FF
1608: 0F 2B FF 05
160C: 48 FF 03 70
1610: 72 69 71 74           db   72h, 69h, 71h, 74h, 6Eh, 6Fh, 67h, 6Fh, 00h, 77h, 61h, 6Dh, 00h, 6Fh, 74h, 64h
1614: 6E 6F 67 6F
1618: 00 77 61 6D
161C: 00 6F 74 64
1620: 79 68 61 00           db   79h, 68h, 61h, 00h, 21h, 0FFh, 0Bh, 56h, 0FFh, 04h, 56h, 0FFh, 02h, 48h, 0FFh, 05h
1624: 21 FF 0B 56
1628: FF 04 56 FF
162C: 02 48 FF 05
1630: 09 FF 04 23           db   09h, 0FFh, 04h, 23h, 0FFh, 0Fh, 2Bh, 2Bh, 2Bh, 2Bh, 3Eh, 00h, 48h, 0FFh, 20h, 48h
1634: FF 0F 2B 2B
1638: 2B 2B 3E 00
163C: 48 FF 20 48
1640: FF 0A 3D 48           db   0FFh, 0Ah, 3Dh, 48h, 3Dh, 3Dh, 3Dh, 3Dh, 3Dh, 3Dh, 3Dh, 3Dh, 3Dh, 3Dh, 3Dh, 0FFh
1644: 3D 3D 3D 3D
1648: 3D 3D 3D 3D
164C: 3D 3D 3D FF
1650: 15 48 FF 20           db   15h, 48h, 0FFh, 20h, 48h, 0FFh, 0Bh, 48h, 0FFh, 20h, 48h, 48h, 48h, 48h, 48h, 48h
1654: 48 FF 0B 48
1658: FF 20 48 48
165C: 48 48 48 48
1660: 48 48 48 48           db   48h, 48h, 48h, 48h, 48h, 48h, 48h, 0FFh, 04h, 2Eh, 48h, 48h, 48h, 48h, 48h, 48h
1664: 48 48 48 FF
1668: 04 2E 48 48
166C: 48 48 48 48
1670: 48 48 2D 2D           db   48h, 48h, 2Dh, 2Dh, 2Dh, 2Dh, 2Dh, 2Dh, 2Dh, 2Dh, 0FFh, 0Bh, 48h, 0FFh, 19h, 23h
1674: 2D 2D 2D 2D
1678: 2D 2D FF 0B
167C: 48 FF 19 23
1680: FF 06 1E FF           db   0FFh, 06h, 1Eh, 0FFh, 12h, 55h, 0FFh, 05h, 48h, 0FFh, 0Eh, 2Dh, 2Dh, 48h, 2Dh, 2Dh
1684: 12 55 FF 05
1688: 48 FF 0E 2D
168C: 2D 48 2D 2D
1690: 48 FF 19 23           db   48h, 0FFh, 19h, 23h, 0FFh, 1Fh, 6Eh, 0FFh, 13h, 48h, 0FFh, 19h, 23h, 0FFh, 06h, 48h
1694: FF 1F 6E FF
1698: 13 48 FF 19
169C: 23 FF 06 48
16A0: FF 18 48 FF           db   0FFh, 18h, 48h, 0FFh, 05h, 2Eh, 0FFh, 0Dh, 48h, 0FFh, 04h, 2Eh, 0FFh, 14h, 3Dh, 3Dh
16A4: 05 2E FF 0D
16A8: 48 FF 04 2E
16AC: FF 14 3D 3D
16B0: 3D 3D 3D 3D           db   3Dh, 3Dh, 3Dh, 3Dh, 3Dh, 48h, 3Dh, 3Dh, 3Dh, 3Dh, 3Dh, 3Dh, 48h, 3Dh, 3Dh, 3Dh
16B4: 3D 48 3D 3D
16B8: 3D 3D 3D 3D
16BC: 48 3D 3D 3D
16C0: 3D 2D 2D 2D           db   3Dh, 2Dh, 2Dh, 2Dh, 3Dh, 2Dh, 2Dh, 2Dh, 3Dh, 3Dh, 3Dh, 48h, 3Dh, 3Dh, 48h, 3Dh
16C4: 3D 2D 2D 2D
16C8: 3D 3D 3D 48
16CC: 3D 3D 48 3D
16D0: 3D 3D FF 10           db   3Dh, 3Dh, 0FFh, 10h, 48h, 0FFh, 03h, 2Dh, 3Dh, 2Dh, 0FFh, 1Ah, 48h, 0FFh, 25h, 48h
16D4: 48 FF 03 2D
16D8: 3D 2D FF 1A
16DC: 48 FF 25 48
16E0: FF 06 48 FF           db   0FFh, 06h, 48h, 0FFh, 20h, 48h, 0FFh, 22h, 3Dh, 3Dh, 3Dh, 48h, 3Dh, 3Dh, 3Dh, 3Dh
16E4: 20 48 FF 22
16E8: 3D 3D 3D 48
16EC: 3D 3D 3D 3D
16F0: 3D 3D 3D 3D           db   3Dh, 3Dh, 3Dh, 3Dh, 0FFh, 18h, 70h, 72h, 6Fh, 77h, 61h, 6Ch, 00h, 48h, 0FFh, 18h
16F4: FF 18 70 72
16F8: 6F 77 61 6C
16FC: 00 48 FF 18
1700: 48 FF 0C 48           db   48h, 0FFh, 0Ch, 48h, 0FFh, 08h, 0Bh, 2Eh, 0Bh, 0FFh, 06h, 23h, 0FFh, 15h, 48h, 0FFh   ; 1700h
1704: FF 08 0B 2E
1708: 0B FF 06 23
170C: FF 15 48 FF
1710: 07 1E 2E 2E           db   07h, 1Eh, 2Eh, 2Eh, 0Bh, 0Bh, 0Bh, 2Eh, 00h, 2Eh, 0Bh, 2Eh, 0Bh, 2Eh, 00h, 0Bh
1714: 0B 0B 0B 2E
1718: 00 2E 0B 2E
171C: 0B 2E 00 0B
1720: 0B 00 48 23           db   0Bh, 00h, 48h, 23h, 3Dh, 2Dh, 2Dh, 2Dh, 2Dh, 2Dh, 2Dh, 2Dh, 0FFh, 03h, 48h, 0FFh
1724: 3D 2D 2D 2D
1728: 2D 2D 2D 2D
172C: FF 03 48 FF
1730: 11 23 FF 11           db   11h, 23h, 0FFh, 11h, 21h, 0FFh, 03h, 48h, 0FFh, 06h, 3Dh, 3Dh, 3Dh, 3Dh, 3Dh, 3Dh
1734: 21 FF 03 48
1738: FF 06 3D 3D
173C: 3D 3D 3D 3D
1740: 3D 3D 48 3D           db   3Dh, 3Dh, 48h, 3Dh, 3Dh, 3Dh, 3Dh, 3Dh, 3Dh, 3Dh, 3Dh, 3Dh, 48h, 0FFh, 04h, 1Eh
1744: 3D 3D 3D 3D
1748: 3D 3D 3D 3D
174C: 48 FF 04 1E
1750: FF 07 48 FF           db   0FFh, 07h, 48h, 0FFh, 0Ah, 48h, 0FFh, 06h, 23h, 0FFh, 11h, 21h, 0FFh, 03h, 48h, 0FFh
1754: 0A 48 FF 06
1758: 23 FF 11 21
175C: FF 03 48 FF
1760: 06 3D 3D 3D           db   06h, 3Dh, 3Dh, 3Dh, 00h, 3Dh, 00h, 1Eh, 3Dh, 00h, 3Dh, 0FFh, 04h, 3Dh, 3Dh, 3Dh
1764: 00 3D 00 1E
1768: 3D 00 3D FF
176C: 04 3D 3D 3D
1770: 00 48 FF 04           db   00h, 48h, 0FFh, 04h, 2Dh, 2Dh, 2Dh, 2Dh, 2Dh, 2Dh, 2Dh, 3Dh, 3Dh, 3Dh, 3Dh, 3Dh
1774: 2D 2D 2D 2D
1778: 2D 2D 2D 3D
177C: 3D 3D 3D 3D
1780: 3D 3D 3D 3D           db   3Dh, 3Dh, 3Dh, 3Dh, 3Dh, 3Dh, 3Dh, 48h, 3Dh, 3Dh, 3Dh, 3Dh, 3Dh, 3Dh, 3Dh, 0FFh
1784: 3D 3D 3D 48
1788: 3D 3D 3D 3D
178C: 3D 3D 3D FF
1790: 11 21 FF 03           db   11h, 21h, 0FFh, 03h, 48h, 0FFh, 18h, 48h, 0FFh, 17h, 48h, 0FFh, 18h, 21h, 0FFh, 03h
1794: 48 FF 18 48
1798: FF 17 48 FF
179C: 18 21 FF 03
17A0: 48 FF 06 2E           db   48h, 0FFh, 06h, 2Eh, 0FFh, 0Bh, 1Eh, 0FFh, 03h, 2Eh, 00h, 48h, 0FFh, 03h, 2Eh, 0FFh
17A4: FF 0B 1E FF
17A8: 03 2E 00 48
17AC: FF 03 2E FF
17B0: 04 1E 00 2E           db   04h, 1Eh, 00h, 2Eh, 0FFh, 0Ch, 48h, 0FFh, 18h, 21h, 0FFh, 03h, 3Dh, 3Dh, 3Dh, 3Dh
17B4: FF 0C 48 FF
17B8: 18 21 FF 03
17BC: 3D 3D 3D 3D
17C0: 3D 3D 3D 3D           db   3Dh, 3Dh, 3Dh, 3Dh, 2Dh, 2Dh, 2Dh, 2Dh, 48h, 2Dh, 2Dh, 2Dh, 2Dh, 2Dh, 2Dh, 2Dh
17C4: 2D 2D 2D 2D
17C8: 48 2D 2D 2D
17CC: 2D 2D 2D 2D
17D0: 2D 2D 2D 3D           db   2Dh, 2Dh, 2Dh, 3Dh, 3Dh, 3Dh, 3Dh, 3Dh, 3Dh, 3Dh, 2Dh, 2Dh, 2Dh, 2Dh, 2Dh, 2Dh
17D4: 3D 3D 3D 3D
17D8: 3D 3D 2D 2D
17DC: 2D 2D 2D 2D
17E0: 48 3D 3D 3D           db   48h, 3Dh, 3Dh, 3Dh, 3Dh, 3Dh, 3Dh, 3Dh, 3Dh, 3Dh, 3Dh, 3Dh, 3Dh, 3Dh, 0FFh, 18h
17E4: 3D 3D 3D 3D
17E8: 3D 3D 3D 3D
17EC: 3D 3D FF 18
17F0: 56 FF 31 2E           db   56h, 0FFh, 31h, 2Eh, 0FFh, 18h, 23h, 0FFh, 0Eh, 3Dh, 3Dh, 2Dh, 2Dh, 2Dh, 2Dh, 0FFh
17F4: FF 18 23 FF
17F8: 0E 3D 3D 2D
17FC: 2D 2D 2D FF
1800: 03 2D 2D 2D           db   03h, 2Dh, 2Dh, 2Dh, 2Dh, 3Dh, 3Dh, 0FFh, 07h, 3Dh, 3Dh, 2Dh, 2Dh, 2Dh, 2Dh, 3Dh   ; 1800h
1804: 2D 3D 3D FF
1808: 07 3D 3D 2D
180C: 2D 2D 2D 3D
1810: 3D 3D 3D 3D           db   3Dh, 3Dh, 3Dh, 3Dh, 3Dh, 3Dh, 3Dh, 3Dh, 3Dh, 3Dh, 0FFh, 09h, 23h, 0FFh, 0Eh, 23h
1814: 3D 3D 3D 3D
1818: 3D 3D FF 09
181C: 23 FF 0E 23
1820: FF 11 1E FF           db   0FFh, 11h, 1Eh, 0FFh, 07h, 1Eh, 0FFh, 0Dh, 1Eh, 00h, 1Eh, 0FFh, 05h, 1Eh, 0FFh, 0Eh
1824: 07 1E FF 0D
1828: 1E 00 1E FF
182C: 05 1E FF 0E
1830: 23 FF 0E 23           db   23h, 0FFh, 0Eh, 23h, 0Bh, 0Bh, 0Bh, 2Ah, 0Bh, 0Bh, 0Bh, 0Bh, 0Bh, 0FFh, 03h, 0Bh
1834: 0B 0B 0B 2A
1838: 0B 0B 0B 0B
183C: 0B FF 03 0B
1840: 0B 00 0B 0B           db   0Bh, 00h, 0Bh, 0Bh, 23h, 0Bh, 0Bh, 0Bh, 2Ah, 0Bh, 0Bh, 0Bh, 23h, 0Bh, 0Bh, 00h
1844: 23 0B 0B 0B
1848: 2A 0B 0B 0B
184C: 23 0B 0B 00
1850: 0B 0B 2A 0B           db   0Bh, 0Bh, 2Ah, 0Bh, 2Eh, 0Bh, 0Bh, 00h, 0Bh, 23h, 0Bh, 2Ah, 0Bh, 0Bh, 0Bh, 0FFh
1854: 2E 0B 0B 00
1858: 0B 23 0B 2A
185C: 0B 0B 0B FF
1860: 02 0B 2E FF           db   02h, 0Bh, 2Eh, 0FFh, 07h, 23h, 00h, 0Bh, 0Bh, 0Bh, 2Ah, 0Bh, 23h, 0FFh, 0Eh, 3Dh
1864: 07 23 00 0B
1868: 0B 0B 2A 0B
186C: 23 FF 0E 3D
1870: 3D 3D 3D 3D           db   3Dh, 3Dh, 3Dh, 3Dh, 3Dh, 3Dh, 3Dh, 3Dh, 3Dh, 3Dh, 3Dh, 3Dh, 3Dh, 3Dh, 3Dh, 3Dh
1874: 3D 3D 3D 3D
1878: 3D 3D 3D 3D
187C: 3D 3D 3D 3D
1880: 3D 3D 3D 3D           db   3Dh, 3Dh, 3Dh, 3Dh, 3Dh, 3Dh, 3Dh, 3Dh, 3Dh, 3Dh, 3Dh, 3Dh, 3Dh, 3Dh, 3Dh, 3Dh
1884: 3D 3D 3D 3D
1888: 3D 3D 3D 3D
188C: 3D 3D 3D 3D
1890: 3D 3D 3D 3D           db   3Dh, 3Dh, 3Dh, 3Dh, 3Dh, 3Dh, 3Dh, 3Dh, 3Dh, 3Dh, 3Dh, 3Dh, 3Dh, 3Dh, 3Dh, 3Dh
1894: 3D 3D 3D 3D
1898: 3D 3D 3D 3D
189C: 3D 3D 3D 3D
18A0: 3D 3D 3D 3D           db   3Dh, 3Dh, 3Dh, 3Dh, 3Dh, 3Dh, 3Dh, 3Dh, 3Dh, 3Dh, 3Dh, 3Dh, 3Dh, 3Dh, 3Dh, 0FFh
18A4: 3D 3D 3D 3D
18A8: 3D 3D 3D 3D
18AC: 3D 3D 3D FF
18B0: 0E 75 72 6F           db   0Eh, 75h, 72h, 6Fh, 77h, 65h, 6Eh, 78h, 0FFh, 06h, 70h, 6Fh, 70h, 79h, 74h, 6Bh
18B4: 77 65 6E 78
18B8: FF 06 70 6F
18BC: 70 79 74 6B
18C0: 69 FF 06 6F           db   69h, 0FFh, 06h, 6Fh, 7Eh, 6Bh, 69h, 0FFh, 08h, 77h, 72h, 65h, 6Dh, 71h, 0FFh, 63h
18C4: 7E 6B 69 FF
18C8: 08 77 72 65
18CC: 6D 71 FF 63

                    ; --- LEVEL F ---
18D0:               level_F:                                        ; offset=18D0h
18D0: 00 72 61 73           db   00h, 72h, 61h, 73h, 73h, 65h, 69h, 77h, 61h, 74h, 65h, 6Ch, 78h, 00h, 23h, 0FFh   ; 18D0h
18D4: 73 65 69 77
18D8: 61 74 65 6C
18DC: 78 00 23 FF
18E0: 15 0B FF 0D           db   15h, 0Bh, 0FFh, 0Dh, 55h, 0FFh, 1Ch, 2Dh, 2Dh, 2Dh, 2Dh, 2Dh, 2Dh, 2Dh, 2Dh, 2Dh
18E4: 55 FF 1C 2D
18E8: 2D 2D 2D 2D
18EC: 2D 2D 2D 2D
18F0: 2D 2D 2D 3E           db   2Dh, 2Dh, 2Dh, 3Eh, 3Dh, 48h, 3Dh, 3Dh, 3Dh, 3Dh, 3Dh, 3Dh, 48h, 3Dh, 3Dh, 3Dh
18F4: 3D 48 3D 3D
18F8: 3D 3D 3D 3D
18FC: 48 3D 3D 3D
1900: 3D 3D 3D 3D           db   3Dh, 3Dh, 3Dh, 3Dh, 3Dh, 3Dh, 3Dh, 3Dh, 3Dh, 3Dh, 48h, 3Dh, 3Dh, 3Dh, 3Dh, 3Dh   ; 1900h
1904: 3D 3D 3D 3D
1908: 3D 3D 48 3D
190C: 3D 3D 3D 3D
1910: 3D 3D 3D 3D           db   3Dh, 3Dh, 3Dh, 3Dh, 3Dh, 3Dh, 3Dh, 3Dh, 3Dh, 0FFh, 02h, 75h, 73h, 6Ch, 61h, 64h
1914: 3D 3D 3D 3D
1918: 3D FF 02 75
191C: 73 6C 61 64
1920: 61 FF 31 6E           db   61h, 0FFh, 31h, 6Eh, 6Eh, 48h, 48h, 48h, 48h, 48h, 48h, 0FFh, 10h, 73h, 65h, 72h
1924: 6E 48 48 48
1928: 48 48 48 FF
192C: 10 73 65 72
1930: 64 63 61 FF           db   64h, 63h, 61h, 0FFh, 30h, 48h, 48h, 48h, 2Eh, 0FFh, 04h, 48h, 48h, 48h, 0FFh, 2Dh
1934: 30 48 48 48
1938: 2E FF 04 48
193C: 48 48 FF 2D
1940: 48 FF 06 0B           db   48h, 0FFh, 06h, 0Bh, 0FFh, 0Eh, 2Eh, 0FFh, 05h, 2Eh, 0FFh, 31h, 48h, 3Dh, 3Dh, 3Dh
1944: FF 0E 2E FF
1948: 05 2E FF 31
194C: 48 3D 3D 3D
1950: 3D 3D 3D 23           db   3Dh, 3Dh, 3Dh, 23h, 0FFh, 06h, 0Bh, 0FFh, 07h, 23h, 0FFh, 05h, 23h, 0Bh, 00h, 3Dh
1954: FF 06 0B FF
1958: 07 23 FF 05
195C: 23 0B 00 3D
1960: 3D 3D 3D 3D           db   3Dh, 3Dh, 3Dh, 3Dh, 3Dh, 3Dh, 0FFh, 08h, 48h, 0FFh, 1Fh, 6Eh, 0FFh, 06h, 23h, 3Dh
1964: 3D 3D FF 08
1968: 48 FF 1F 6E
196C: FF 06 23 3D
1970: 3D 3D 3D 3D           db   3Dh, 3Dh, 3Dh, 3Dh, 48h, 3Dh, 3Dh, 3Dh, 3Dh, 3Dh, 0FFh, 03h, 23h, 00h, 0Bh, 0Bh
1974: 48 3D 3D 3D
1978: 3D 3D FF 03
197C: 23 00 0B 0B
1980: 0B 00 23 FF           db   0Bh, 00h, 23h, 0FFh, 02h, 55h, 0FFh, 0Bh, 3Dh, 3Dh, 3Dh, 48h, 3Dh, 3Dh, 3Dh, 0FFh
1984: 02 55 FF 0B
1988: 3D 3D 3D 48
198C: 3D 3D 3D FF
1990: 1C 48 FF 15           db   1Ch, 48h, 0FFh, 15h, 23h, 0FFh, 05h, 23h, 0FFh, 07h, 6Bh, 72h, 69h, 77h, 61h, 71h
1994: 23 FF 05 23
1998: FF 07 6B 72
199C: 69 77 61 71
19A0: FF 04 48 FF           db   0FFh, 04h, 48h, 0FFh, 1Fh, 6Eh, 0FFh, 15h, 3Dh, 3Dh, 3Dh, 48h, 3Dh, 3Dh, 3Dh, 0FFh
19A4: 1F 6E FF 15
19A8: 3D 3D 3D 48
19AC: 3D 3D 3D FF
19B0: 02 23 00 24           db   02h, 23h, 00h, 24h, 0FFh, 0Ch, 48h, 0FFh, 1Fh, 48h, 0FFh, 09h, 48h, 0FFh, 0Eh, 2Eh
19B4: FF 0C 48 FF
19B8: 1F 48 FF 09
19BC: 48 FF 0E 2E
19C0: FF 05 23 00           db   0FFh, 05h, 23h, 00h, 6Eh, 0FFh, 04h, 64h, 6Fh, 72h, 6Fh, 67h, 61h, 0FFh, 02h, 48h
19C4: 6E FF 04 64
19C8: 6F 72 6F 67
19CC: 61 FF 02 48
19D0: FF 1A 0B FF           db   0FFh, 1Ah, 0Bh, 0FFh, 04h, 6Eh, 0FFh, 07h, 3Dh, 3Dh, 48h, 3Dh, 3Dh, 3Dh, 3Dh, 0FFh
19D4: 04 6E FF 07
19D8: 3D 3D 48 3D
19DC: 3D 3D 3D FF
19E0: 0A 09 FF 05           db   0Ah, 09h, 0FFh, 05h, 23h, 1Eh, 48h, 00h, 48h, 0FFh, 0Ah, 48h, 0FFh, 09h, 0Bh, 0FFh
19E4: 23 1E 48 00
19E8: 48 FF 0A 48
19EC: FF 09 0B FF
19F0: 10 23 FF 04           db   10h, 23h, 0FFh, 04h, 48h, 0FFh, 09h, 48h, 0FFh, 0Bh, 3Dh, 3Dh, 3Dh, 3Dh, 3Dh, 3Dh
19F4: 48 FF 09 48
19F8: FF 0B 3D 3D
19FC: 3D 3D 3D 3D
1A00: 3D 3D 3D 3D           db   3Dh, 3Dh, 3Dh, 3Dh, 3Dh, 3Dh, 3Dh, 48h, 0FFh, 07h, 3Dh, 3Dh, 3Dh, 3Dh, 0FFh, 09h   ; 1A00h
1A04: 3D 3D 3D 48
1A08: FF 07 3D 3D
1A0C: 3D 3D FF 09
1A10: 23 FF 10 23           db   23h, 0FFh, 10h, 23h, 0FFh, 04h, 6Eh, 0FFh, 09h, 48h, 0FFh, 05h, 1Eh, 23h, 0FFh, 11h
1A14: FF 04 6E FF
1A18: 09 48 FF 05
1A1C: 1E 23 FF 11
1A20: 48 FF 0F 48           db   48h, 0FFh, 0Fh, 48h, 0FFh, 04h, 23h, 0FFh, 10h, 23h, 0FFh, 04h, 48h, 0FFh, 09h, 48h
1A24: FF 04 23 FF
1A28: 10 23 FF 04
1A2C: 48 FF 09 48
1A30: FF 05 1E 23           db   0FFh, 05h, 1Eh, 23h, 0FFh, 0Bh, 48h, 0FFh, 05h, 48h, 0FFh, 0Ah, 3Dh, 3Dh, 3Dh, 3Dh
1A34: FF 0B 48 FF
1A38: 05 48 FF 0A
1A3C: 3D 3D 3D 3D
1A40: 3D 48 3D 3D           db   3Dh, 48h, 3Dh, 3Dh, 0FFh, 02h, 23h, 0FFh, 10h, 3Dh, 3Dh, 3Dh, 3Dh, 3Dh, 48h, 3Dh
1A44: FF 02 23 FF
1A48: 10 3D 3D 3D
1A4C: 3D 3D 48 3D
1A50: 3D 3D 1E FF           db   3Dh, 3Dh, 1Eh, 0FFh, 05h, 48h, 0FFh, 06h, 3Dh, 3Dh, 3Dh, 3Dh, 3Dh, 3Dh, 3Dh, 3Dh
1A54: 05 48 FF 06
1A58: 3D 3D 3D 3D
1A5C: 3D 3D 3D 3D
1A60: 48 3D 3D 3D           db   48h, 3Dh, 3Dh, 3Dh, 48h, 0FFh, 05h, 48h, 0FFh, 03h, 72h, 61h, 6Ah, 73h, 6Bh, 69h
1A64: 48 FF 05 48
1A68: FF 03 72 61
1A6C: 6A 73 6B 69
1A70: 65 FF 05 48           db   65h, 0FFh, 05h, 48h, 0FFh, 04h, 23h, 0FFh, 10h, 23h, 1Eh, 0FFh, 03h, 2Eh, 00h, 1Eh
1A74: FF 04 23 FF
1A78: 10 23 1E FF
1A7C: 03 2E 00 1E
1A80: 23 FF 06 48           db   23h, 0FFh, 06h, 48h, 0FFh, 12h, 48h, 0FFh, 05h, 48h, 0FFh, 04h, 21h, 0FFh, 02h, 6Bh
1A84: FF 12 48 FF
1A88: 05 48 FF 04
1A8C: 21 FF 02 6B
1A90: 75 7D 69 FF           db   75h, 7Dh, 69h, 0FFh, 04h, 48h, 0FFh, 04h, 23h, 0FFh, 10h, 3Dh, 3Dh, 3Dh, 3Dh, 3Dh
1A94: 04 48 FF 04
1A98: 23 FF 10 3D
1A9C: 3D 3D 3D 3D
1AA0: 6E 3D 3D 3D           db   6Eh, 3Dh, 3Dh, 3Dh, 0FFh, 06h, 48h, 0FFh, 12h, 48h, 0FFh, 05h, 1Eh, 0FFh, 04h, 21h
1AA4: FF 06 48 FF
1AA8: 12 48 FF 05
1AAC: 1E FF 04 21
1AB0: FF 0A 48 FF           db   0FFh, 0Ah, 48h, 0FFh, 04h, 23h, 0FFh, 0Fh, 6Fh, 74h, 64h, 79h, 68h, 6Eh, 6Fh, 77h
1AB4: 04 23 FF 0F
1AB8: 6F 74 64 79
1ABC: 68 6E 6F 77
1AC0: 65 6E 69 65           db   65h, 6Eh, 69h, 65h, 00h, 3Dh, 3Dh, 3Dh, 48h, 3Dh, 3Dh, 0FFh, 03h, 3Dh, 3Dh, 3Dh
1AC4: 00 3D 3D 3D
1AC8: 48 3D 3D FF
1ACC: 03 3D 3D 3D
1AD0: FF 04 48 FF           db   0FFh, 04h, 48h, 0FFh, 05h, 1Eh, 0FFh, 0Ah, 21h, 0FFh, 0Ah, 48h, 0FFh, 04h, 23h, 0FFh
1AD4: 05 1E FF 0A
1AD8: 21 FF 0A 48
1ADC: FF 04 23 FF
1AE0: 13 64 75 7B           db   13h, 64h, 75h, 7Bh, 69h, 0FFh, 07h, 2Eh, 1Eh, 2Eh, 0FFh, 0Bh, 48h, 3Dh, 3Dh, 48h
1AE4: 69 FF 07 2E
1AE8: 1E 2E FF 0B
1AEC: 48 3D 3D 48
1AF0: 3D 3D FF 06           db   3Dh, 3Dh, 0FFh, 06h, 3Dh, 3Dh, 3Dh, 0FFh, 02h, 21h, 00h, 3Dh, 0Bh, 0Bh, 0Bh, 0Bh
1AF4: 3D 3D 3D FF
1AF8: 02 21 00 3D
1AFC: 0B 0B 0B 0B
1B00: 00 23 3D 3D           db   00h, 23h, 3Dh, 3Dh, 3Dh, 3Dh, 3Dh, 3Dh, 3Dh, 3Dh, 0FFh, 0Eh, 0Bh, 0FFh, 1Dh, 48h   ; 1B00h
1B04: 3D 3D 3D 3D
1B08: 3D 3D FF 0E
1B0C: 0B FF 1D 48
1B10: FF 03 1E FF           db   0FFh, 03h, 1Eh, 0FFh, 0Ch, 21h, 0Bh, 0FFh, 02h, 3Dh, 3Dh, 3Dh, 48h, 3Dh, 3Dh, 3Dh
1B14: 0C 21 0B FF
1B18: 02 3D 3D 3D
1B1C: 48 3D 3D 3D
1B20: 3D 3D 3D FF           db   3Dh, 3Dh, 3Dh, 0FFh, 11h, 23h, 0FFh, 16h, 0Bh, 0Bh, 0Bh, 0Bh, 2Eh, 2Eh, 2Eh, 48h
1B24: 11 23 FF 16
1B28: 0B 0B 0B 0B
1B2C: 2E 2E 2E 48
1B30: 2D 3D 3D 3D           db   2Dh, 3Dh, 3Dh, 3Dh, 2Dh, 3Dh, 0FFh, 08h, 0Bh, 00h, 2Bh, 2Dh, 2Dh, 3Eh, 23h, 1Eh
1B34: 2D 3D FF 08
1B38: 0B 00 2B 2D
1B3C: 2D 3E 23 1E
1B40: FF 06 1E 23           db   0FFh, 06h, 1Eh, 23h, 0FFh, 02h, 23h, 0FFh, 0Eh, 23h, 0FFh, 12h, 3Dh, 3Dh, 0FFh, 02h
1B44: FF 02 23 FF
1B48: 0E 23 FF 12
1B4C: 3D 3D FF 02
1B50: 3D 3D 3D 3D           db   3Dh, 3Dh, 3Dh, 3Dh, 3Dh, 3Dh, 3Dh, 48h, 0FFh, 09h, 3Dh, 3Dh, 3Dh, 3Dh, 3Dh, 48h
1B54: 3D 3D 3D 48
1B58: FF 09 3D 3D
1B5C: 3D 3D 3D 48
1B60: 3D 3D 3D 3D           db   3Dh, 3Dh, 3Dh, 3Dh, 3Dh, 3Dh, 0FFh, 02h, 2Eh, 0FFh, 02h, 2Eh, 0FFh, 02h, 23h, 0FFh
1B64: 3D 3D FF 02
1B68: 2E FF 02 2E
1B6C: FF 02 23 FF
1B70: 02 23 FF 0E           db   02h, 23h, 0FFh, 0Eh, 23h, 2Ah, 0FFh, 05h, 0Bh, 0FFh, 03h, 0Bh, 0FFh, 05h, 0Bh, 0FFh
1B74: 23 2A FF 05
1B78: 0B FF 03 0B
1B7C: FF 05 0B FF
1B80: 0C 48 FF 0B           db   0Ch, 48h, 0FFh, 0Bh, 48h, 0FFh, 04h, 2Eh, 0FFh, 03h, 48h, 2Eh, 0FFh, 03h, 0Bh, 0FFh
1B84: 48 FF 04 2E
1B88: FF 03 48 2E
1B8C: FF 03 0B FF
1B90: 02 48 0B 00           db   02h, 48h, 0Bh, 00h, 2Ah, 23h, 0FFh, 0Eh, 3Dh, 3Dh, 3Dh, 3Dh, 3Dh, 3Dh, 3Dh, 3Dh
1B94: 2A 23 FF 0E
1B98: 3D 3D 3D 3D
1B9C: 3D 3D 3D 3D
1BA0: 3D 3D 3D 3D           db   3Dh, 3Dh, 3Dh, 3Dh, 3Dh, 3Dh, 3Dh, 3Dh, 3Dh, 3Dh, 3Dh, 3Dh, 3Dh, 3Dh, 3Dh, 3Dh
1BA4: 3D 3D 3D 3D
1BA8: 3D 3D 3D 3D
1BAC: 3D 3D 3D 3D
1BB0: 3D 3D 3D 3D           db   3Dh, 3Dh, 3Dh, 3Dh, 3Dh, 3Dh, 3Dh, 3Dh, 3Dh, 3Dh, 3Dh, 3Dh, 3Dh, 3Dh, 3Dh, 3Dh
1BB4: 3D 3D 3D 3D
1BB8: 3D 3D 3D 3D
1BBC: 3D 3D 3D 3D
1BC0: 3D 3D 3D 3D           db   3Dh, 3Dh, 3Dh, 3Dh, 3Dh, 3Dh, 3Dh, 3Dh, 3Dh, 3Dh, 3Dh, 3Dh, 3Dh, 3Dh, 3Dh, 3Dh
1BC4: 3D 3D 3D 3D
1BC8: 3D 3D 3D 3D
1BCC: 3D 3D 3D 3D
1BD0: 3D 3D 3D 3D           db   3Dh, 3Dh, 3Dh, 3Dh, 3Dh, 3Dh, 3Dh, 3Dh, 0FFh, 0Eh, 75h, 72h, 6Fh, 77h, 65h, 6Eh
1BD4: 3D 3D 3D 3D
1BD8: FF 0E 75 72
1BDC: 6F 77 65 6E
1BE0: 78 FF 06 70           db   78h, 0FFh, 06h, 70h, 6Fh, 70h, 79h, 74h, 6Bh, 69h, 0FFh, 06h, 6Fh, 7Eh, 6Bh, 69h
1BE4: 6F 70 79 74
1BE8: 6B 69 FF 06
1BEC: 6F 7E 6B 69
1BF0: FF 08 77 72           db   0FFh, 08h, 77h, 72h, 65h, 6Dh, 71h, 0FFh, 63h, 00h, 0FFh, 00h, 0FFh, 00h, 0FFh, 00h
1BF4: 65 6D 71 FF
1BF8: 63 00 FF 00
1BFC: FF 00 FF 00

                    ; --- LEVEL G (for the luckiest) ---
1C00:               level_G:                                        ; offset=1C00h
1C00: FF 05 72 00           db   0FFh, 05h, 72h, 00h, 65h, 00h, 7Ah, 00h, 6Fh, 00h, 6Ch, 00h, 60h, 00h, 63h, 00h   ; 1C00h
1C04: 65 00 7A 00
1C08: 6F 00 6C 00
1C0C: 60 00 63 00
1C10: 69 00 71 FF           db   69h, 00h, 71h, 0FFh, 05h, 06h, 0FFh, 03h, 75h, 72h, 6Fh, 77h, 65h, 6Eh, 78h, 00h
1C14: 05 06 FF 03
1C18: 75 72 6F 77
1C1C: 65 6E 78 00
1C20: 64 6C 71 00           db   64h, 6Ch, 71h, 00h, 73h, 61h, 6Dh, 79h, 68h, 00h, 73h, 7Eh, 61h, 73h, 74h, 6Ch
1C24: 73 61 6D 79
1C28: 68 00 73 7E
1C2C: 61 73 74 6C
1C30: 69 77 79 68           db   69h, 77h, 79h, 68h, 0FFh, 14h, 14h, 14h, 14h, 14h, 14h, 14h, 14h, 14h, 14h, 14h
1C34: FF 14 14 14
1C38: 14 14 14 14
1C3C: 14 14 14 14
1C40: 14 14 14 14           db   14h, 14h, 14h, 14h, 14h, 14h, 14h, 14h, 14h, 14h, 14h, 14h, 14h, 14h, 14h, 14h
1C44: 14 14 14 14
1C48: 14 14 14 14
1C4C: 14 14 14 14
1C50: 16 00 48 FF           db   16h, 00h, 48h, 0FFh, 0Ch, 55h, 0FFh, 40h, 3Dh, 3Dh, 3Dh, 3Dh, 3Dh, 3Dh, 3Dh, 3Dh
1C54: 0C 55 FF 40
1C58: 3D 3D 3D 3D
1C5C: 3D 3D 3D 3D
1C60: 3D 3D 48 3D           db   3Dh, 3Dh, 48h, 3Dh, 3Dh, 3Dh, 0FFh, 09h, 2Eh, 2Eh, 2Eh, 0FFh, 2Dh, 23h, 0FFh, 1Dh
1C64: 3D 3D FF 09
1C68: 2E 2E 2E FF
1C6C: 2D 23 FF 1D
1C70: 2E 2E 2E FF           db   2Eh, 2Eh, 2Eh, 0FFh, 20h, 23h, 0FFh, 02h, 09h, 0FFh, 02h, 48h, 0FFh, 06h, 23h, 1Eh
1C74: 20 23 FF 02
1C78: 09 FF 02 48
1C7C: FF 06 23 1E
1C80: FF 05 23 FF           db   0FFh, 05h, 23h, 0FFh, 16h, 2Eh, 2Eh, 2Eh, 0FFh, 02h, 48h, 0FFh, 03h, 6Dh, 0FFh, 11h
1C84: 16 2E 2E 2E
1C88: FF 02 48 FF
1C8C: 03 6D FF 11
1C90: 77 00 73 00           db   77h, 00h, 73h, 00h, 65h, 0FFh, 03h, 3Dh, 3Dh, 3Dh, 3Dh, 3Dh, 3Dh, 48h, 0FFh, 06h
1C94: 65 FF 03 3D
1C98: 3D 3D 3D 3D
1C9C: 3D 48 FF 06
1CA0: 23 00 0B FF           db   23h, 00h, 0Bh, 0FFh, 04h, 48h, 0FFh, 08h, 1Eh, 0FFh, 03h, 3Dh, 3Dh, 3Dh, 3Dh, 3Dh
1CA4: 04 48 FF 08
1CA8: 1E FF 03 3D
1CAC: 3D 3D 3D 3D
1CB0: 3D 48 3D 3D           db   3Dh, 48h, 3Dh, 3Dh, 3Dh, 3Dh, 48h, 3Dh, 3Dh, 3Dh, 48h, 0FFh, 21h, 55h, 00h, 48h
1CB4: 3D 3D 48 3D
1CB8: 3D 3D 48 FF
1CBC: 21 55 00 48
1CC0: FF 06 23 00           db   0FFh, 06h, 23h, 00h, 2Eh, 00h, 0Bh, 0FFh, 02h, 23h, 0FFh, 08h, 3Dh, 3Dh, 0FFh, 0Ch
1CC4: 2E 00 0B FF
1CC8: 02 23 FF 08
1CCC: 3D 3D FF 0C
1CD0: 1E FF 04 48           db   1Eh, 0FFh, 04h, 48h, 0FFh, 03h, 69h, 0FFh, 12h, 64h, 00h, 6Ch, 00h, 71h, 0FFh, 08h
1CD4: FF 03 69 FF
1CD8: 12 64 00 6C
1CDC: 00 71 FF 08
1CE0: 48 FF 06 3D           db   48h, 0FFh, 06h, 3Dh, 3Dh, 48h, 3Dh, 3Dh, 3Dh, 3Dh, 3Dh, 0FFh, 02h, 48h, 0FFh, 10h
1CE4: 3D 48 3D 3D
1CE8: 3D 3D 3D FF
1CEC: 02 48 FF 10
1CF0: 0B 0B 0B 2E           db   0Bh, 0Bh, 0Bh, 2Eh, 0FFh, 04h, 48h, 0FFh, 23h, 48h, 0FFh, 10h, 48h, 3Dh, 3Dh, 0FFh
1CF4: FF 04 48 FF
1CF8: 23 48 FF 10
1CFC: 48 3D 3D FF
1D00: 0E 2D 2D 2D           db   0Eh, 2Dh, 2Dh, 2Dh, 2Dh, 2Dh, 2Dh, 2Dh, 00h, 48h, 0FFh, 03h, 72h, 0FFh, 13h, 77h   ; 1D00h
1D04: 2D 2D 2D 2D
1D08: 00 48 FF 03
1D0C: 72 FF 13 77
1D10: 00 61 00 73           db   00h, 61h, 00h, 73h, 0FFh, 03h, 48h, 0FFh, 03h, 48h, 0FFh, 10h, 48h, 0FFh, 0Ch, 1Eh
1D14: FF 03 48 FF
1D18: 03 48 FF 10
1D1C: 48 FF 0C 1E
1D20: FF 0B 48 FF           db   0FFh, 0Bh, 48h, 0FFh, 1Fh, 48h, 3Dh, 3Dh, 3Dh, 48h, 0FFh, 10h, 48h, 0FFh, 08h, 23h
1D24: 1F 48 3D 3D
1D28: 3D 48 FF 10
1D2C: 48 FF 08 23
1D30: FF 03 23 FF           db   0FFh, 03h, 23h, 0FFh, 06h, 0Bh, 0FFh, 04h, 48h, 0FFh, 03h, 61h, 0FFh, 14h, 21h, 00h
1D34: 06 0B FF 04
1D38: 48 FF 03 61
1D3C: FF 14 21 00
1D40: 21 00 21 FF           db   21h, 00h, 21h, 0FFh, 02h, 48h, 0FFh, 0Bh, 0Bh, 0Bh, 1Eh, 1Eh, 0Bh, 0Bh, 00h, 1Eh
1D44: 02 48 FF 0B
1D48: 0B 0B 1E 1E
1D4C: 0B 0B 00 1E
1D50: 0B 48 FF 04           db   0Bh, 48h, 0FFh, 04h, 48h, 0FFh, 03h, 23h, 0FFh, 03h, 3Dh, 3Dh, 3Dh, 3Dh, 3Dh, 3Dh
1D54: 48 FF 03 23
1D58: FF 03 3D 3D
1D5C: 3D 3D 3D 3D
1D60: 3D 48 3D 3D           db   3Dh, 48h, 3Dh, 3Dh, 3Dh, 3Dh, 48h, 0FFh, 1Fh, 48h, 0FFh, 09h, 3Dh, 3Dh, 3Dh, 3Dh
1D64: 3D 3D 48 FF
1D68: 1F 48 FF 09
1D6C: 3D 3D 3D 3D
1D70: 48 3D 3D 3D           db   48h, 3Dh, 3Dh, 3Dh, 3Dh, 3Dh, 3Dh, 48h, 3Dh, 3Dh, 3Dh, 3Dh, 48h, 3Dh, 3Dh, 3Dh
1D74: 3D 3D 3D 48
1D78: 3D 3D 3D 3D
1D7C: 48 3D 3D 3D
1D80: 3D FF 05 1E           db   3Dh, 0FFh, 05h, 1Eh, 0FFh, 09h, 48h, 0FFh, 03h, 76h, 0FFh, 1Bh, 48h, 0FFh, 14h, 6Eh
1D84: FF 09 48 FF
1D88: 03 76 FF 1B
1D8C: 48 FF 14 6E
1D90: FF 04 48 FF           db   0FFh, 04h, 48h, 0FFh, 08h, 1Eh, 1Eh, 1Eh, 0FFh, 08h, 48h, 0FFh, 34h, 6Eh, 0FFh, 04h
1D94: 08 1E 1E 1E
1D98: FF 08 48 FF
1D9C: 34 6E FF 04
1DA0: 48 FF 07 1E           db   48h, 0FFh, 07h, 1Eh, 1Eh, 1Eh, 1Eh, 1Eh, 0Bh, 0Bh, 2Eh, 2Eh, 0Bh, 0Bh, 00h, 48h
1DA4: 1E 1E 1E 1E
1DA8: 0B 0B 2E 2E
1DAC: 0B 0B 00 48
1DB0: FF 03 69 FF           db   0FFh, 03h, 69h, 0FFh, 30h, 48h, 0FFh, 04h, 48h, 0FFh, 07h, 3Dh, 3Dh, 3Dh, 3Dh, 3Dh
1DB4: 30 48 FF 04
1DB8: 48 FF 07 3D
1DBC: 3D 3D 3D 3D
1DC0: 3D 3D 3D 3D           db   3Dh, 3Dh, 3Dh, 3Dh, 3Dh, 3Dh, 3Dh, 48h, 0FFh, 2Ah, 3Dh, 3Dh, 2Dh, 2Dh, 2Dh, 2Dh
1DC4: 3D 3D 3D 48
1DC8: FF 2A 3D 3D
1DCC: 2D 2D 2D 2D
1DD0: 3D 3D 3D 3D           db   3Dh, 3Dh, 3Dh, 3Dh, 3Dh, 3Dh, 0FFh, 03h, 48h, 0FFh, 03h, 23h, 0FFh, 06h, 24h, 0FFh
1DD4: 3D 3D FF 03
1DD8: 48 FF 03 23
1DDC: FF 06 24 FF
1DE0: 04 24 FF 07           db   04h, 24h, 0FFh, 07h, 2Bh, 0FFh, 31h, 23h, 0FFh, 03h, 48h, 0FFh, 03h, 23h, 0FFh, 05h
1DE4: 2B FF 31 23
1DE8: FF 03 48 FF
1DEC: 03 23 FF 05
1DF0: 24 24 24 FF           db   24h, 24h, 24h, 0FFh, 02h, 24h, 24h, 24h, 0FFh, 06h, 2Bh, 0FFh, 18h, 3Dh, 3Dh, 3Dh
1DF4: 02 24 24 24
1DF8: FF 06 2B FF
1DFC: 18 3D 3D 3D
1E00: 2D 2D 2D 2D           db   2Dh, 2Dh, 2Dh, 2Dh, 2Dh, 3Dh, 3Dh, 3Dh, 0FFh, 0Eh, 23h, 0FFh, 03h, 48h, 0FFh, 03h   ; 1E00h
1E04: 2D 3D 3D 3D
1E08: FF 0E 23 FF
1E0C: 03 48 FF 03
1E10: 23 FF 04 24           db   23h, 0FFh, 04h, 24h, 24h, 24h, 24h, 24h, 24h, 24h, 24h, 24h, 24h, 0FFh, 02h, 3Ch
1E14: 24 24 24 24
1E18: 24 24 24 24
1E1C: 24 FF 02 3C
1E20: 2B 2B 2B FF           db   2Bh, 2Bh, 2Bh, 0FFh, 11h, 0Bh, 0FFh, 06h, 61h, 00h, 7Ah, 64h, 65h, 73h, 78h, 0FFh
1E24: 11 0B FF 06
1E28: 61 00 7A 64
1E2C: 65 73 78 FF
1E30: 03 23 FF 03           db   03h, 23h, 0FFh, 03h, 3Dh, 0FFh, 0Ah, 23h, 00h, 3Dh, 3Dh, 3Dh, 3Dh, 3Dh, 3Dh, 23h
1E34: 3D FF 0A 23
1E38: 00 3D 3D 3D
1E3C: 3D 3D 3D 23
1E40: FF 03 3D 3D           db   0FFh, 03h, 3Dh, 3Dh, 3Dh, 3Dh, 3Dh, 3Dh, 3Dh, 3Dh, 3Dh, 3Dh, 3Dh, 3Dh, 0FFh, 07h
1E44: 3D 3D 3D 3D
1E48: 3D 3D 3D 3D
1E4C: 3D 3D FF 07
1E50: 0B FF 0E 23           db   0Bh, 0FFh, 0Eh, 23h, 0FFh, 05h, 70h, 72h, 69h, 64h, 65h, 74h, 73h, 71h, 0FFh, 03h
1E54: FF 05 70 72
1E58: 69 64 65 74
1E5C: 73 71 FF 03
1E60: 23 FF 03 24           db   23h, 0FFh, 03h, 24h, 0FFh, 0Bh, 0Bh, 0FFh, 03h, 1Eh, 0FFh, 19h, 23h, 0FFh, 0Eh, 23h
1E64: FF 0B 0B FF
1E68: 03 1E FF 19
1E6C: 23 FF 0E 23
1E70: FF 03 70 6F           db   0FFh, 03h, 70h, 6Fh, 6Bh, 61h, 72h, 71h, 7Eh, 69h, 74h, 78h, 73h, 71h, 00h, 23h
1E74: 6B 61 72 71
1E78: 7E 69 74 78
1E7C: 73 71 00 23
1E80: 0B 0B 0B 0B           db   0Bh, 0Bh, 0Bh, 0Bh, 0Bh, 0Bh, 0FFh, 03h, 24h, 00h, 0Bh, 0FFh, 06h, 3Dh, 3Dh, 3Dh
1E84: 0B 0B FF 03
1E88: 24 00 0B FF
1E8C: 06 3D 3D 3D
1E90: 3D 3D FF 16           db   3Dh, 3Dh, 0FFh, 16h, 23h, 0FFh, 0Eh, 23h, 2Ah, 0FFh, 11h, 2Eh, 2Eh, 2Eh, 2Eh, 00h
1E94: 23 FF 0E 23
1E98: 2A FF 11 2E
1E9C: 2E 2E 2E 00
1EA0: 1E 00 0B 48           db   1Eh, 00h, 0Bh, 48h, 2Ah, 0Bh, 0FFh, 0Bh, 0Bh, 00h, 0Bh, 0FFh, 0Bh, 0Bh, 0Bh, 0Bh
1EA4: 2A 0B FF 0B
1EA8: 0B 00 0B FF
1EAC: 0B 0B 0B 0B
1EB0: 0B 0B 0B 0B           db   0Bh, 0Bh, 0Bh, 0Bh, 0Bh, 23h, 0FFh, 0Eh, 3Dh, 3Dh, 3Dh, 3Dh, 3Dh, 3Dh, 3Dh, 3Dh
1EB4: 0B 23 FF 0E
1EB8: 3D 3D 3D 3D
1EBC: 3D 3D 3D 3D
1EC0: 3D 3D 3D 3D           db   3Dh, 3Dh, 3Dh, 3Dh, 3Dh, 3Dh, 3Dh, 3Dh, 3Dh, 3Dh, 3Dh, 3Dh, 3Dh, 3Dh, 3Dh, 3Dh
1EC4: 3D 3D 3D 3D
1EC8: 3D 3D 3D 3D
1ECC: 3D 3D 3D 3D
1ED0: 3D 3D 3D 3D           db   3Dh, 3Dh, 3Dh, 3Dh, 3Dh, 3Dh, 3Dh, 3Dh, 3Dh, 3Dh, 3Dh, 3Dh, 3Dh, 3Dh, 3Dh, 3Dh
1ED4: 3D 3D 3D 3D
1ED8: 3D 3D 3D 3D
1EDC: 3D 3D 3D 3D
1EE0: 3D 3D 3D 3D           db   3Dh, 3Dh, 3Dh, 3Dh, 3Dh, 3Dh, 3Dh, 3Dh, 3Dh, 3Dh, 3Dh, 3Dh, 3Dh, 3Dh, 3Dh, 3Dh
1EE4: 3D 3D 3D 3D
1EE8: 3D 3D 3D 3D
1EEC: 3D 3D 3D 3D
1EF0: 3D 3D 3D 3D           db   3Dh, 3Dh, 3Dh, 3Dh, 3Dh, 3Dh, 3Dh, 3Dh, 0FFh, 0Eh, 75h, 72h, 6Fh, 77h, 65h, 6Eh
1EF4: 3D 3D 3D 3D
1EF8: FF 0E 75 72
1EFC: 6F 77 65 6E
1F00: 78 FF 06 70           db   78h, 0FFh, 06h, 70h, 6Fh, 70h, 79h, 74h, 6Bh, 69h, 0FFh, 06h, 6Fh, 7Eh, 6Bh, 69h   ; 1F00h
1F04: 6F 70 79 74
1F08: 6B 69 FF 06
1F0C: 6F 7E 6B 69
1F10: FF 08 77 72           db   0FFh, 08h, 77h, 72h, 65h, 6Dh, 71h, 0FFh, 63h, 00h, 0FFh, 00h, 0FFh, 00h, 0FFh, 00h
1F14: 65 6D 71 FF
1F18: 63 00 FF 00
1F1C: FF 00 FF 00

